ARM GAS  C:\Users\rolf\AppData\Local\Temp\ccET1jSp.s 			page 1


   1              		.syntax unified
   2              		.cpu cortex-m0
   3              		.fpu softvfp
   4              		.eabi_attribute 20, 1
   5              		.eabi_attribute 21, 1
   6              		.eabi_attribute 23, 3
   7              		.eabi_attribute 24, 1
   8              		.eabi_attribute 25, 1
   9              		.eabi_attribute 26, 1
  10              		.eabi_attribute 30, 1
  11              		.eabi_attribute 34, 0
  12              		.eabi_attribute 18, 4
  13              		.thumb
  14              		.syntax unified
  15              		.file	"CyLib.c"
  16              		.text
  17              	.Ltext0:
  18              		.cfi_sections	.debug_frame
  19              		.section	.text.CySysClkImoSetPwrBgTrim5,"ax",%progbits
  20              		.align	2
  21              		.code	16
  22              		.thumb_func
  23              		.type	CySysClkImoSetPwrBgTrim5, %function
  24              	CySysClkImoSetPwrBgTrim5:
  25              	.LFB9:
  26              		.file 1 "Generated_Source\\PSoC4\\CyLib.c"
   1:Generated_Source\PSoC4/CyLib.c **** /***************************************************************************//**
   2:Generated_Source\PSoC4/CyLib.c **** * \file CyLib.c
   3:Generated_Source\PSoC4/CyLib.c **** * \version 6.0
   4:Generated_Source\PSoC4/CyLib.c **** *
   5:Generated_Source\PSoC4/CyLib.c **** * \brief Provides a system API for the Clocking, Interrupts, SysTick, and
   6:Generated_Source\PSoC4/CyLib.c **** * Voltage Detect.
   7:Generated_Source\PSoC4/CyLib.c **** *
   8:Generated_Source\PSoC4/CyLib.c **** * \note Documentation of the API's in this file is located in the PSoC 4 System
   9:Generated_Source\PSoC4/CyLib.c **** * Reference Guide provided with PSoC Creator.
  10:Generated_Source\PSoC4/CyLib.c **** *
  11:Generated_Source\PSoC4/CyLib.c **** ********************************************************************************
  12:Generated_Source\PSoC4/CyLib.c **** * \copyright
  13:Generated_Source\PSoC4/CyLib.c **** * Copyright 2010-2020, Cypress Semiconductor Corporation.  All rights reserved.
  14:Generated_Source\PSoC4/CyLib.c **** * You may use this file only in accordance with the license, terms, conditions,
  15:Generated_Source\PSoC4/CyLib.c **** * disclaimers, and limitations in the end user license agreement accompanying
  16:Generated_Source\PSoC4/CyLib.c **** * the software package with which this file was provided.
  17:Generated_Source\PSoC4/CyLib.c **** *******************************************************************************/
  18:Generated_Source\PSoC4/CyLib.c **** 
  19:Generated_Source\PSoC4/CyLib.c **** #include "CyLib.h"
  20:Generated_Source\PSoC4/CyLib.c **** 
  21:Generated_Source\PSoC4/CyLib.c **** /* CySysClkWriteImoFreq() || CySysClkImoEnableWcoLock() */
  22:Generated_Source\PSoC4/CyLib.c **** #if ((CY_IP_SRSSV2 && CY_IP_FMLT) || CY_IP_IMO_TRIMMABLE_BY_WCO)
  23:Generated_Source\PSoC4/CyLib.c ****     #include "CyFlash.h"
  24:Generated_Source\PSoC4/CyLib.c **** #endif /* (CY_IP_SRSSV2 && CY_IP_FMLT) */
  25:Generated_Source\PSoC4/CyLib.c **** 
  26:Generated_Source\PSoC4/CyLib.c **** /* Do not use these definitions directly in your application */
  27:Generated_Source\PSoC4/CyLib.c **** uint32 cydelayFreqHz  = CYDEV_BCLK__SYSCLK__HZ;
  28:Generated_Source\PSoC4/CyLib.c **** uint32 cydelayFreqKhz = (CYDEV_BCLK__SYSCLK__HZ + CY_DELAY_1K_MINUS_1_THRESHOLD) / CY_DELAY_1K_THRE
  29:Generated_Source\PSoC4/CyLib.c **** uint8  cydelayFreqMhz = (uint8)((CYDEV_BCLK__SYSCLK__HZ + CY_DELAY_1M_MINUS_1_THRESHOLD) / CY_DELAY
  30:Generated_Source\PSoC4/CyLib.c **** uint32 cydelay32kMs   = CY_DELAY_MS_OVERFLOW * ((CYDEV_BCLK__SYSCLK__HZ + CY_DELAY_1K_MINUS_1_THRES
  31:Generated_Source\PSoC4/CyLib.c ****                         CY_DELAY_1K_THRESHOLD);
ARM GAS  C:\Users\rolf\AppData\Local\Temp\ccET1jSp.s 			page 2


  32:Generated_Source\PSoC4/CyLib.c **** 
  33:Generated_Source\PSoC4/CyLib.c **** 
  34:Generated_Source\PSoC4/CyLib.c **** static cySysTickCallback CySysTickCallbacks[CY_SYS_SYST_NUM_OF_CALLBACKS];
  35:Generated_Source\PSoC4/CyLib.c **** static void CySysTickServiceCallbacks(void);
  36:Generated_Source\PSoC4/CyLib.c **** 
  37:Generated_Source\PSoC4/CyLib.c **** #if (CY_IP_PLL)
  38:Generated_Source\PSoC4/CyLib.c ****     static uint32 CySysClkPllGetBypassMode(uint32 pll);
  39:Generated_Source\PSoC4/CyLib.c ****     static cystatus CySysClkPllConfigChangeAllowed(uint32 pll);
  40:Generated_Source\PSoC4/CyLib.c **** #endif /* (CY_IP_PLL) */
  41:Generated_Source\PSoC4/CyLib.c **** 
  42:Generated_Source\PSoC4/CyLib.c **** 
  43:Generated_Source\PSoC4/CyLib.c **** /***************************************************************************//**
  44:Generated_Source\PSoC4/CyLib.c **** * Indicates whether or not the SysTick has been initialized. The variable is
  45:Generated_Source\PSoC4/CyLib.c **** * initialized to 0 and set to 1 the first time CySysTickStart() is called.
  46:Generated_Source\PSoC4/CyLib.c **** *
  47:Generated_Source\PSoC4/CyLib.c **** * This allows the component to restart without reinitialization after the first
  48:Generated_Source\PSoC4/CyLib.c **** * call to the CySysTickStart() routine.
  49:Generated_Source\PSoC4/CyLib.c **** *
  50:Generated_Source\PSoC4/CyLib.c **** * If reinitialization of the SysTick is required, call CySysTickInit() before
  51:Generated_Source\PSoC4/CyLib.c **** * calling CySysTickStart(). Alternatively, the SysTick can be reinitialized by
  52:Generated_Source\PSoC4/CyLib.c **** * calling the CySysTickInit() and CySysTickEnable() functions.
  53:Generated_Source\PSoC4/CyLib.c **** *******************************************************************************/
  54:Generated_Source\PSoC4/CyLib.c **** uint32 CySysTickInitVar = 0u;
  55:Generated_Source\PSoC4/CyLib.c **** 
  56:Generated_Source\PSoC4/CyLib.c **** 
  57:Generated_Source\PSoC4/CyLib.c **** #if(CY_IP_SRSSV2)
  58:Generated_Source\PSoC4/CyLib.c ****         /* Conversion between CySysClkWriteImoFreq() parameter and register's value */
  59:Generated_Source\PSoC4/CyLib.c ****         const uint8 cyImoFreqMhz2Reg[CY_SYS_CLK_IMO_FREQ_TABLE_SIZE] = {
  60:Generated_Source\PSoC4/CyLib.c ****             /*  3 MHz */ 0x03u,  /*  4 MHz */ 0x04u,  /*  5 MHz */ 0x05u,  /*  6 MHz */ 0x06u,
  61:Generated_Source\PSoC4/CyLib.c ****             /*  7 MHz */ 0x07u,  /*  8 MHz */ 0x08u,  /*  9 MHz */ 0x09u,  /* 10 MHz */ 0x0Au,
  62:Generated_Source\PSoC4/CyLib.c ****             /* 11 MHz */ 0x0Bu,  /* 12 MHz */ 0x0Cu,  /* 13 MHz */ 0x0Eu,  /* 14 MHz */ 0x0Fu,
  63:Generated_Source\PSoC4/CyLib.c ****             /* 15 MHz */ 0x10u,  /* 16 MHz */ 0x11u,  /* 17 MHz */ 0x12u,  /* 18 MHz */ 0x13u,
  64:Generated_Source\PSoC4/CyLib.c ****             /* 19 MHz */ 0x14u,  /* 20 MHz */ 0x15u,  /* 21 MHz */ 0x16u,  /* 22 MHz */ 0x17u,
  65:Generated_Source\PSoC4/CyLib.c ****             /* 23 MHz */ 0x18u,  /* 24 MHz */ 0x19u,  /* 25 MHz */ 0x1Bu,  /* 26 MHz */ 0x1Cu,
  66:Generated_Source\PSoC4/CyLib.c ****             /* 27 MHz */ 0x1Du,  /* 28 MHz */ 0x1Eu,  /* 29 MHz */ 0x1Fu,  /* 30 MHz */ 0x20u,
  67:Generated_Source\PSoC4/CyLib.c ****             /* 31 MHz */ 0x21u,  /* 32 MHz */ 0x22u,  /* 33 MHz */ 0x23u,  /* 34 MHz */ 0x25u,
  68:Generated_Source\PSoC4/CyLib.c ****             /* 35 MHz */ 0x26u,  /* 36 MHz */ 0x27u,  /* 37 MHz */ 0x28u,  /* 38 MHz */ 0x29u,
  69:Generated_Source\PSoC4/CyLib.c ****             /* 39 MHz */ 0x2Au,  /* 40 MHz */ 0x2Bu,  /* 41 MHz */ 0x2Eu,  /* 42 MHz */ 0x2Fu,
  70:Generated_Source\PSoC4/CyLib.c ****             /* 43 MHz */ 0x30u,  /* 44 MHz */ 0x31u,  /* 45 MHz */ 0x32u,  /* 46 MHz */ 0x33u,
  71:Generated_Source\PSoC4/CyLib.c ****             /* 47 MHz */ 0x34u,  /* 48 MHz */ 0x35u };
  72:Generated_Source\PSoC4/CyLib.c **** #endif /* (CY_IP_SRSSV2) */
  73:Generated_Source\PSoC4/CyLib.c **** 
  74:Generated_Source\PSoC4/CyLib.c **** #if (CY_IP_IMO_TRIMMABLE_BY_USB && CY_IP_SRSSV2)
  75:Generated_Source\PSoC4/CyLib.c ****     #define CY_CRI_TESTPGM_6_REV            (6u)
  76:Generated_Source\PSoC4/CyLib.c ****     #define CY_CRI_TESTPGM_9_REV            (9u)
  77:Generated_Source\PSoC4/CyLib.c ****     #define CYSFLASH_CRI_testpgm_rev_MASK   (0x0000003Fu)
  78:Generated_Source\PSoC4/CyLib.c **** 
  79:Generated_Source\PSoC4/CyLib.c ****     /* Stored CY_SYS_CLK_IMO_TRIM4_REG when modified for USB lock */
  80:Generated_Source\PSoC4/CyLib.c ****     uint32 CySysClkImoTrim4 = 0u;
  81:Generated_Source\PSoC4/CyLib.c ****     uint32 CySysClkImoTrim5 = 0u;
  82:Generated_Source\PSoC4/CyLib.c **** 
  83:Generated_Source\PSoC4/CyLib.c ****     static void CySysClkImoSetPwrBgTrim5(void);
  84:Generated_Source\PSoC4/CyLib.c ****     static void CySysClkImoSetImoTrims(void);
  85:Generated_Source\PSoC4/CyLib.c **** #endif /* (CY_IP_IMO_TRIMMABLE_BY_USB && CY_IP_SRSSV2) */
  86:Generated_Source\PSoC4/CyLib.c **** 
  87:Generated_Source\PSoC4/CyLib.c **** /* Stored PUMP_SEL configuration during disable (IMO output by default) */
  88:Generated_Source\PSoC4/CyLib.c **** uint32 CySysClkPumpConfig = CY_SYS_CLK_PUMP_ENABLE;
ARM GAS  C:\Users\rolf\AppData\Local\Temp\ccET1jSp.s 			page 3


  89:Generated_Source\PSoC4/CyLib.c **** 
  90:Generated_Source\PSoC4/CyLib.c **** 
  91:Generated_Source\PSoC4/CyLib.c **** /*******************************************************************************
  92:Generated_Source\PSoC4/CyLib.c **** * Function Name: CySysClkImoStart
  93:Generated_Source\PSoC4/CyLib.c **** ****************************************************************************//**
  94:Generated_Source\PSoC4/CyLib.c **** *
  95:Generated_Source\PSoC4/CyLib.c **** * Enables the IMO.
  96:Generated_Source\PSoC4/CyLib.c **** *
  97:Generated_Source\PSoC4/CyLib.c **** * For PSoC 4100M / PSoC 4200M / PSoC 4000S / PSoC 4100S / PSoC 4500 / PSoC Analog
  98:Generated_Source\PSoC4/CyLib.c **** * Coprocessor devices, this function will also enable WCO lock if selected in
  99:Generated_Source\PSoC4/CyLib.c **** * the Design Wide Resources tab.
 100:Generated_Source\PSoC4/CyLib.c **** *
 101:Generated_Source\PSoC4/CyLib.c **** * For PSoC 4200L devices, this function will also enable USB lock if selected
 102:Generated_Source\PSoC4/CyLib.c **** * in the Design Wide Resources tab.
 103:Generated_Source\PSoC4/CyLib.c **** *
 104:Generated_Source\PSoC4/CyLib.c **** *******************************************************************************/
 105:Generated_Source\PSoC4/CyLib.c **** void CySysClkImoStart(void)
 106:Generated_Source\PSoC4/CyLib.c **** {
 107:Generated_Source\PSoC4/CyLib.c ****     CY_SYS_CLK_IMO_CONFIG_REG |= CY_SYS_CLK_IMO_CONFIG_ENABLE;
 108:Generated_Source\PSoC4/CyLib.c **** 
 109:Generated_Source\PSoC4/CyLib.c ****     #if (CY_IP_IMO_TRIMMABLE_BY_WCO)
 110:Generated_Source\PSoC4/CyLib.c ****         #if (CYDEV_IMO_TRIMMED_BY_WCO == 1u)
 111:Generated_Source\PSoC4/CyLib.c ****             CySysClkImoEnableWcoLock();
 112:Generated_Source\PSoC4/CyLib.c ****         #endif  /* (CYDEV_IMO_TRIMMED_BY_WCO == 1u) */
 113:Generated_Source\PSoC4/CyLib.c ****     #endif  /* (CY_IP_IMO_TRIMMABLE_BY_WCO) */
 114:Generated_Source\PSoC4/CyLib.c **** 
 115:Generated_Source\PSoC4/CyLib.c **** 
 116:Generated_Source\PSoC4/CyLib.c ****     #if (CY_IP_IMO_TRIMMABLE_BY_USB)
 117:Generated_Source\PSoC4/CyLib.c ****         #if (CYDEV_IMO_TRIMMED_BY_USB == 1u)
 118:Generated_Source\PSoC4/CyLib.c ****             CySysClkImoEnableUsbLock();
 119:Generated_Source\PSoC4/CyLib.c ****         #endif  /* (CYDEV_IMO_TRIMMED_BY_USB == 1u) */
 120:Generated_Source\PSoC4/CyLib.c ****     #endif  /* (CY_IP_IMO_TRIMMABLE_BY_USB) */
 121:Generated_Source\PSoC4/CyLib.c **** 
 122:Generated_Source\PSoC4/CyLib.c **** }
 123:Generated_Source\PSoC4/CyLib.c **** 
 124:Generated_Source\PSoC4/CyLib.c **** 
 125:Generated_Source\PSoC4/CyLib.c **** /*******************************************************************************
 126:Generated_Source\PSoC4/CyLib.c **** * Function Name: CySysClkImoStop
 127:Generated_Source\PSoC4/CyLib.c **** ****************************************************************************//**
 128:Generated_Source\PSoC4/CyLib.c **** *
 129:Generated_Source\PSoC4/CyLib.c **** * Disables the IMO.
 130:Generated_Source\PSoC4/CyLib.c **** *
 131:Generated_Source\PSoC4/CyLib.c **** * For PSoC 4100M / PSoC 4200M / PSoC 4200L / PSoC 4000S / PSoC 4100S /
 132:Generated_Source\PSoC4/CyLib.c **** * PSoC 4500 / PSoC Analog Coprocessor devices, this function will also
 133:Generated_Source\PSoC4/CyLib.c **** * disable WCO lock.
 134:Generated_Source\PSoC4/CyLib.c **** *
 135:Generated_Source\PSoC4/CyLib.c **** * For PSoC PSoC 4200L devices, this function will also disable USB lock.
 136:Generated_Source\PSoC4/CyLib.c **** *
 137:Generated_Source\PSoC4/CyLib.c **** *******************************************************************************/
 138:Generated_Source\PSoC4/CyLib.c **** void CySysClkImoStop(void)
 139:Generated_Source\PSoC4/CyLib.c **** {
 140:Generated_Source\PSoC4/CyLib.c ****     #if (CY_IP_IMO_TRIMMABLE_BY_WCO)
 141:Generated_Source\PSoC4/CyLib.c ****         CySysClkImoDisableWcoLock();
 142:Generated_Source\PSoC4/CyLib.c ****     #endif  /* (CY_IP_IMO_TRIMMABLE_BY_WCO) */
 143:Generated_Source\PSoC4/CyLib.c **** 
 144:Generated_Source\PSoC4/CyLib.c ****     #if (CY_IP_IMO_TRIMMABLE_BY_USB)
 145:Generated_Source\PSoC4/CyLib.c ****         CySysClkImoDisableUsbLock();
ARM GAS  C:\Users\rolf\AppData\Local\Temp\ccET1jSp.s 			page 4


 146:Generated_Source\PSoC4/CyLib.c ****     #endif  /* (CY_IP_IMO_TRIMMABLE_BY_USB) */
 147:Generated_Source\PSoC4/CyLib.c **** 
 148:Generated_Source\PSoC4/CyLib.c ****     CY_SYS_CLK_IMO_CONFIG_REG &= ( uint32 ) ( ~( uint32 )CY_SYS_CLK_IMO_CONFIG_ENABLE);
 149:Generated_Source\PSoC4/CyLib.c **** }
 150:Generated_Source\PSoC4/CyLib.c **** 
 151:Generated_Source\PSoC4/CyLib.c **** #if (CY_IP_IMO_TRIMMABLE_BY_WCO)
 152:Generated_Source\PSoC4/CyLib.c **** 
 153:Generated_Source\PSoC4/CyLib.c ****     /*******************************************************************************
 154:Generated_Source\PSoC4/CyLib.c ****     * Function Name: CySysClkImoEnableWcoLock
 155:Generated_Source\PSoC4/CyLib.c ****     ****************************************************************************//**
 156:Generated_Source\PSoC4/CyLib.c ****     *
 157:Generated_Source\PSoC4/CyLib.c ****     * Enables the IMO to WCO lock feature. This function works only if the WCO is
 158:Generated_Source\PSoC4/CyLib.c ****     * already enabled. If the WCO is not enabled then this function returns
 159:Generated_Source\PSoC4/CyLib.c ****     * without enabling the lock feature.
 160:Generated_Source\PSoC4/CyLib.c ****     *
 161:Generated_Source\PSoC4/CyLib.c ****     * It takes up to 20 ms for the IMO to stabilize. The delay is implemented with
 162:Generated_Source\PSoC4/CyLib.c ****     * CyDelay() function. The delay interval is measured based on the system
 163:Generated_Source\PSoC4/CyLib.c ****     * frequency defined by PSoC Creator at build time. If System clock frequency
 164:Generated_Source\PSoC4/CyLib.c ****     * is changed in runtime, the CyDelayFreq() with the appropriate parameter
 165:Generated_Source\PSoC4/CyLib.c ****     * should be called.
 166:Generated_Source\PSoC4/CyLib.c ****     *
 167:Generated_Source\PSoC4/CyLib.c ****     * For PSoC 4200L devices, note that the IMO can lock to either WCO or USB
 168:Generated_Source\PSoC4/CyLib.c ****     * but not both.
 169:Generated_Source\PSoC4/CyLib.c ****     *
 170:Generated_Source\PSoC4/CyLib.c ****     * This function is applicable for PSoC 4100M / PSoC 4200M / PSoC 4000S /
 171:Generated_Source\PSoC4/CyLib.c ****     * PSoC 4100S / PSoC 4500 / PSoC Analog Coprocessor / PSoC 4200L.
 172:Generated_Source\PSoC4/CyLib.c ****     *
 173:Generated_Source\PSoC4/CyLib.c ****     *******************************************************************************/
 174:Generated_Source\PSoC4/CyLib.c ****     void CySysClkImoEnableWcoLock(void)
 175:Generated_Source\PSoC4/CyLib.c ****     {
 176:Generated_Source\PSoC4/CyLib.c ****         #if(CY_IP_SRSSV2)
 177:Generated_Source\PSoC4/CyLib.c ****             uint32 i;
 178:Generated_Source\PSoC4/CyLib.c ****         #endif  /* (CY_IP_SRSSV2) */
 179:Generated_Source\PSoC4/CyLib.c **** 
 180:Generated_Source\PSoC4/CyLib.c ****         uint32 freq;
 181:Generated_Source\PSoC4/CyLib.c ****         uint8  interruptState;
 182:Generated_Source\PSoC4/CyLib.c ****         uint32 regTmp;
 183:Generated_Source\PSoC4/CyLib.c ****         uint32 lfLimit = 0u;
 184:Generated_Source\PSoC4/CyLib.c ****         volatile uint32 flashCtlReg;
 185:Generated_Source\PSoC4/CyLib.c **** 
 186:Generated_Source\PSoC4/CyLib.c ****         if (0u != CySysClkWcoEnabled())
 187:Generated_Source\PSoC4/CyLib.c ****         {
 188:Generated_Source\PSoC4/CyLib.c ****             interruptState = CyEnterCriticalSection();
 189:Generated_Source\PSoC4/CyLib.c **** 
 190:Generated_Source\PSoC4/CyLib.c ****             /* Set oscillator interface control port to WCO */
 191:Generated_Source\PSoC4/CyLib.c ****             #if (CY_IP_IMO_TRIMMABLE_BY_WCO && CY_IP_IMO_TRIMMABLE_BY_USB)
 192:Generated_Source\PSoC4/CyLib.c ****                 CY_SYS_CLK_OSCINTF_CTL_REG =
 193:Generated_Source\PSoC4/CyLib.c ****                     (CY_SYS_CLK_OSCINTF_CTL_REG & (uint32) ~CY_SYS_CLK_OSCINTF_CTL_PORT_SEL_MASK) |
 194:Generated_Source\PSoC4/CyLib.c ****                     CY_SYS_CLK_OSCINTF_CTL_PORT_SEL_WCO;
 195:Generated_Source\PSoC4/CyLib.c ****             #endif /* (CY_IP_IMO_TRIMMABLE_BY_WCO && CY_IP_IMO_TRIMMABLE_BY_USB) */
 196:Generated_Source\PSoC4/CyLib.c **** 
 197:Generated_Source\PSoC4/CyLib.c ****             /* Get current IMO frequency based on the register value */
 198:Generated_Source\PSoC4/CyLib.c ****             #if(CY_IP_SRSSV2)
 199:Generated_Source\PSoC4/CyLib.c ****                 freq = CY_SYS_CLK_IMO_MIN_FREQ_MHZ;
 200:Generated_Source\PSoC4/CyLib.c ****                 for(i = 0u; i < CY_SYS_CLK_IMO_FREQ_TABLE_SIZE; i++)
 201:Generated_Source\PSoC4/CyLib.c ****                 {
 202:Generated_Source\PSoC4/CyLib.c ****                     if ((uint8) (CY_SYS_CLK_IMO_TRIM2_REG & CY_SYS_CLK_IMO_FREQ_BITS_MASK) == cyImo
ARM GAS  C:\Users\rolf\AppData\Local\Temp\ccET1jSp.s 			page 5


 203:Generated_Source\PSoC4/CyLib.c ****                     {
 204:Generated_Source\PSoC4/CyLib.c ****                         freq = i + CY_SYS_CLK_IMO_FREQ_TABLE_OFFSET;
 205:Generated_Source\PSoC4/CyLib.c ****                         break;
 206:Generated_Source\PSoC4/CyLib.c ****                     }
 207:Generated_Source\PSoC4/CyLib.c ****                 }
 208:Generated_Source\PSoC4/CyLib.c ****             #else
 209:Generated_Source\PSoC4/CyLib.c ****                 /* Calculate frequency by shifting register field value and adding constant. */
 210:Generated_Source\PSoC4/CyLib.c ****                 #if(CY_IP_SRSSLT)
 211:Generated_Source\PSoC4/CyLib.c ****                     freq = (((uint32) ((CY_SYS_CLK_IMO_SELECT_REG & ((uint32) CY_SYS_CLK_IMO_SELECT
 212:Generated_Source\PSoC4/CyLib.c ****                                         CY_SYS_CLK_IMO_SELECT_FREQ_SHIFT) + CY_SYS_CLK_IMO_MIN_FREQ
 213:Generated_Source\PSoC4/CyLib.c ****                                       ((CY_SYS_CLK_SELECT_REG >> CY_SYS_CLK_SELECT_HFCLK_DIV_SHIFT)
 214:Generated_Source\PSoC4/CyLib.c ****                                        (uint32) CY_SYS_CLK_SELECT_HFCLK_DIV_MASK));
 215:Generated_Source\PSoC4/CyLib.c ****                 #else
 216:Generated_Source\PSoC4/CyLib.c ****                     freq = ((uint32) ((CY_SYS_CLK_IMO_SELECT_REG & ((uint32) CY_SYS_CLK_IMO_SELECT_
 217:Generated_Source\PSoC4/CyLib.c ****                                        CY_SYS_CLK_IMO_SELECT_FREQ_SHIFT) + CY_SYS_CLK_IMO_MIN_FREQ_
 218:Generated_Source\PSoC4/CyLib.c ****                 #endif  /* (CY_IP_SRSSLT) */
 219:Generated_Source\PSoC4/CyLib.c **** 
 220:Generated_Source\PSoC4/CyLib.c ****             #endif  /* (CY_IP_SRSSV2) */
 221:Generated_Source\PSoC4/CyLib.c **** 
 222:Generated_Source\PSoC4/CyLib.c ****             CY_SYS_CLK_IMO_TRIM1_REG = 0;
 223:Generated_Source\PSoC4/CyLib.c **** 
 224:Generated_Source\PSoC4/CyLib.c ****             /* For the WCO locking mode, the IMO gain needs to be CY_SYS_CLK_IMO_TRIM4_GAIN */
 225:Generated_Source\PSoC4/CyLib.c ****             #if(CY_IP_SRSSV2)
 226:Generated_Source\PSoC4/CyLib.c ****                 if ((CY_SYS_CLK_IMO_TRIM4_REG & CY_SYS_CLK_IMO_TRIM4_GAIN_MASK) == 0u)
 227:Generated_Source\PSoC4/CyLib.c ****                 {
 228:Generated_Source\PSoC4/CyLib.c ****                      CY_SYS_CLK_IMO_TRIM4_REG = (CY_SYS_CLK_IMO_TRIM4_REG & (uint32) ~CY_SYS_CLK_IM
 229:Generated_Source\PSoC4/CyLib.c ****                                                  CY_SYS_CLK_IMO_TRIM4_WCO_GAIN;
 230:Generated_Source\PSoC4/CyLib.c ****                 }
 231:Generated_Source\PSoC4/CyLib.c ****             #endif /* (CY_IP_SRSSV2) */
 232:Generated_Source\PSoC4/CyLib.c **** 
 233:Generated_Source\PSoC4/CyLib.c ****             regTmp  = CY_SYS_CLK_WCO_DPLL_REG & ~(CY_SYS_CLK_WCO_DPLL_MULT_MASK |
 234:Generated_Source\PSoC4/CyLib.c ****                                                   CY_SYS_CLK_WCO_CONFIG_DPLL_LF_IGAIN_MASK |
 235:Generated_Source\PSoC4/CyLib.c ****                                                   CY_SYS_CLK_WCO_CONFIG_DPLL_LF_PGAIN_MASK |
 236:Generated_Source\PSoC4/CyLib.c ****                                                   CY_SYS_CLK_WCO_CONFIG_DPLL_LF_LIMIT_MASK);
 237:Generated_Source\PSoC4/CyLib.c **** 
 238:Generated_Source\PSoC4/CyLib.c ****             /* Set multiplier to determine IMO frequency in multiples of the WCO frequency */
 239:Generated_Source\PSoC4/CyLib.c ****             regTmp |= (CY_SYS_CLK_WCO_DPLL_MULT_VALUE(freq) & CY_SYS_CLK_WCO_DPLL_MULT_MASK);
 240:Generated_Source\PSoC4/CyLib.c **** 
 241:Generated_Source\PSoC4/CyLib.c ****             /* Set DPLL Loop Filter Integral and Proportional Gains Setting */
 242:Generated_Source\PSoC4/CyLib.c ****             regTmp |= (CY_SYS_CLK_WCO_CONFIG_DPLL_LF_IGAIN | CY_SYS_CLK_WCO_CONFIG_DPLL_LF_PGAIN);
 243:Generated_Source\PSoC4/CyLib.c **** 
 244:Generated_Source\PSoC4/CyLib.c ****             CY_SYS_CLK_WCO_DPLL_REG = regTmp;
 245:Generated_Source\PSoC4/CyLib.c **** 
 246:Generated_Source\PSoC4/CyLib.c ****             flashCtlReg = CY_FLASH_CTL_REG;
 247:Generated_Source\PSoC4/CyLib.c ****             CySysFlashSetWaitCycles(CY_SYS_CLK_IMO_MAX_FREQ_MHZ);
 248:Generated_Source\PSoC4/CyLib.c ****             CY_SYS_CLK_WCO_CONFIG_REG |= CY_SYS_CLK_WCO_CONFIG_DPLL_ENABLE;
 249:Generated_Source\PSoC4/CyLib.c **** 
 250:Generated_Source\PSoC4/CyLib.c ****             regTmp  = CY_SYS_CLK_WCO_DPLL_REG & ~(CY_SYS_CLK_WCO_CONFIG_DPLL_LF_LIMIT_MASK);
 251:Generated_Source\PSoC4/CyLib.c **** 
 252:Generated_Source\PSoC4/CyLib.c ****             while (lfLimit < (CY_SYS_CLK_WCO_CONFIG_DPLL_LF_LIMIT_MAX - CY_SYS_CLK_WCO_CONFIG_DPLL_
 253:Generated_Source\PSoC4/CyLib.c ****             {
 254:Generated_Source\PSoC4/CyLib.c ****                 CyDelay(CY_SYS_CLK_WCO_DPLL_TIMEOUT_MS);
 255:Generated_Source\PSoC4/CyLib.c ****                 lfLimit += CY_SYS_CLK_WCO_CONFIG_DPLL_LF_LIMIT_STEP;
 256:Generated_Source\PSoC4/CyLib.c ****                 CY_SYS_CLK_WCO_DPLL_REG = (regTmp | (lfLimit << CY_SYS_CLK_WCO_CONFIG_DPLL_LF_LIMIT
 257:Generated_Source\PSoC4/CyLib.c ****             }
 258:Generated_Source\PSoC4/CyLib.c **** 
 259:Generated_Source\PSoC4/CyLib.c ****             CyDelay(CY_SYS_CLK_WCO_DPLL_TIMEOUT_MS);
ARM GAS  C:\Users\rolf\AppData\Local\Temp\ccET1jSp.s 			page 6


 260:Generated_Source\PSoC4/CyLib.c ****             CY_SYS_CLK_WCO_DPLL_REG = (regTmp | (CY_SYS_CLK_WCO_CONFIG_DPLL_LF_LIMIT_MAX <<
 261:Generated_Source\PSoC4/CyLib.c ****                                                  CY_SYS_CLK_WCO_CONFIG_DPLL_LF_LIMIT_SHIFT));
 262:Generated_Source\PSoC4/CyLib.c **** 
 263:Generated_Source\PSoC4/CyLib.c ****             CY_FLASH_CTL_REG = flashCtlReg;
 264:Generated_Source\PSoC4/CyLib.c **** 
 265:Generated_Source\PSoC4/CyLib.c ****             CyExitCriticalSection(interruptState);
 266:Generated_Source\PSoC4/CyLib.c ****         }
 267:Generated_Source\PSoC4/CyLib.c ****     }
 268:Generated_Source\PSoC4/CyLib.c **** 
 269:Generated_Source\PSoC4/CyLib.c **** 
 270:Generated_Source\PSoC4/CyLib.c ****     /*******************************************************************************
 271:Generated_Source\PSoC4/CyLib.c ****     * Function Name: CySysClkImoDisableWcoLock
 272:Generated_Source\PSoC4/CyLib.c ****     ****************************************************************************//**
 273:Generated_Source\PSoC4/CyLib.c ****     *
 274:Generated_Source\PSoC4/CyLib.c ****     * Disables the IMO to WCO lock feature.
 275:Generated_Source\PSoC4/CyLib.c ****     *
 276:Generated_Source\PSoC4/CyLib.c ****     * For PSoC 4200L devices, note that the IMO can lock to either WCO or USB
 277:Generated_Source\PSoC4/CyLib.c ****     * but not both.
 278:Generated_Source\PSoC4/CyLib.c ****     *
 279:Generated_Source\PSoC4/CyLib.c ****     * This function is applicable for PSoC 4100M / PSoC 4200M / PSoC 4000S /
 280:Generated_Source\PSoC4/CyLib.c ****     * PSoC 4100S / PSoC 4500 / PSoC Analog Coprocessor / PSoC 4200L.
 281:Generated_Source\PSoC4/CyLib.c ****     *
 282:Generated_Source\PSoC4/CyLib.c ****     *******************************************************************************/
 283:Generated_Source\PSoC4/CyLib.c ****     void CySysClkImoDisableWcoLock(void)
 284:Generated_Source\PSoC4/CyLib.c ****     {
 285:Generated_Source\PSoC4/CyLib.c ****         #if(CY_IP_SRSSV2)
 286:Generated_Source\PSoC4/CyLib.c ****             uint32 i;
 287:Generated_Source\PSoC4/CyLib.c ****         #endif  /* (CY_IP_SRSSV2) */
 288:Generated_Source\PSoC4/CyLib.c **** 
 289:Generated_Source\PSoC4/CyLib.c ****         uint32 freq;
 290:Generated_Source\PSoC4/CyLib.c **** 
 291:Generated_Source\PSoC4/CyLib.c ****         /* Get current IMO frequency based on the register value */
 292:Generated_Source\PSoC4/CyLib.c ****         #if(CY_IP_SRSSV2)
 293:Generated_Source\PSoC4/CyLib.c ****             freq = CY_SYS_CLK_IMO_MIN_FREQ_MHZ;
 294:Generated_Source\PSoC4/CyLib.c ****             for(i = 0u; i < CY_SYS_CLK_IMO_FREQ_TABLE_SIZE; i++)
 295:Generated_Source\PSoC4/CyLib.c ****             {
 296:Generated_Source\PSoC4/CyLib.c ****                 if ((uint8) (CY_SYS_CLK_IMO_TRIM2_REG & CY_SYS_CLK_IMO_FREQ_BITS_MASK) == cyImoFreq
 297:Generated_Source\PSoC4/CyLib.c ****                 {
 298:Generated_Source\PSoC4/CyLib.c ****                     freq = i + CY_SYS_CLK_IMO_FREQ_TABLE_OFFSET;
 299:Generated_Source\PSoC4/CyLib.c ****                     break;
 300:Generated_Source\PSoC4/CyLib.c ****                 }
 301:Generated_Source\PSoC4/CyLib.c ****             }
 302:Generated_Source\PSoC4/CyLib.c ****         #else
 303:Generated_Source\PSoC4/CyLib.c ****             /* Calculate frequency by shifting register field value and adding constant. */
 304:Generated_Source\PSoC4/CyLib.c ****             #if(CY_IP_SRSSLT)
 305:Generated_Source\PSoC4/CyLib.c ****                 freq = (((uint32) ((CY_SYS_CLK_IMO_SELECT_REG & ((uint32) CY_SYS_CLK_IMO_SELECT_FRE
 306:Generated_Source\PSoC4/CyLib.c ****                                     CY_SYS_CLK_IMO_SELECT_FREQ_SHIFT) + CY_SYS_CLK_IMO_MIN_FREQ_MHZ
 307:Generated_Source\PSoC4/CyLib.c ****                                   ((CY_SYS_CLK_SELECT_REG >> CY_SYS_CLK_SELECT_HFCLK_DIV_SHIFT) &
 308:Generated_Source\PSoC4/CyLib.c ****                                    (uint32) CY_SYS_CLK_SELECT_HFCLK_DIV_MASK));
 309:Generated_Source\PSoC4/CyLib.c ****             #else
 310:Generated_Source\PSoC4/CyLib.c ****                 freq = ((uint32) ((CY_SYS_CLK_IMO_SELECT_REG & ((uint32) CY_SYS_CLK_IMO_SELECT_FREQ
 311:Generated_Source\PSoC4/CyLib.c ****                                    CY_SYS_CLK_IMO_SELECT_FREQ_SHIFT) + CY_SYS_CLK_IMO_MIN_FREQ_MHZ)
 312:Generated_Source\PSoC4/CyLib.c ****             #endif  /* (CY_IP_SRSSLT) */
 313:Generated_Source\PSoC4/CyLib.c **** 
 314:Generated_Source\PSoC4/CyLib.c ****         #endif  /* (CY_IP_SRSSV2) */
 315:Generated_Source\PSoC4/CyLib.c **** 
 316:Generated_Source\PSoC4/CyLib.c ****         CY_SYS_CLK_WCO_CONFIG_REG &= (uint32) ~CY_SYS_CLK_WCO_CONFIG_DPLL_ENABLE;
ARM GAS  C:\Users\rolf\AppData\Local\Temp\ccET1jSp.s 			page 7


 317:Generated_Source\PSoC4/CyLib.c **** 
 318:Generated_Source\PSoC4/CyLib.c ****         #if(CY_IP_SRSSLT)
 319:Generated_Source\PSoC4/CyLib.c ****             CY_SYS_CLK_IMO_TRIM1_REG = CY_SFLASH_IMO_TRIM_REG(freq - CY_SYS_CLK_IMO_MIN_FREQ_MHZ);
 320:Generated_Source\PSoC4/CyLib.c ****         #else
 321:Generated_Source\PSoC4/CyLib.c ****             CY_SYS_CLK_IMO_TRIM1_REG = CY_SFLASH_IMO_TRIM_REG(freq - CY_SYS_CLK_IMO_FREQ_TABLE_OFFS
 322:Generated_Source\PSoC4/CyLib.c ****         #endif
 323:Generated_Source\PSoC4/CyLib.c ****     }
 324:Generated_Source\PSoC4/CyLib.c **** 
 325:Generated_Source\PSoC4/CyLib.c **** 
 326:Generated_Source\PSoC4/CyLib.c ****     /*******************************************************************************
 327:Generated_Source\PSoC4/CyLib.c ****     * Function Name: CySysClkImoGetWcoLock
 328:Generated_Source\PSoC4/CyLib.c ****     ****************************************************************************//**
 329:Generated_Source\PSoC4/CyLib.c ****     *
 330:Generated_Source\PSoC4/CyLib.c ****     * Reports the IMO to WCO lock enable state.
 331:Generated_Source\PSoC4/CyLib.c ****     *
 332:Generated_Source\PSoC4/CyLib.c ****     * This function is applicable for PSoC 4100M / PSoC 4200M / PSoC 4000S /
 333:Generated_Source\PSoC4/CyLib.c ****     * PSoC 4100S / PSoC 4500 / PSoC Analog Coprocessor / PSoC 4200L.
 334:Generated_Source\PSoC4/CyLib.c ****     *
 335:Generated_Source\PSoC4/CyLib.c ****     * \return 1 if IMO to WCO lock is enabled.
 336:Generated_Source\PSoC4/CyLib.c ****     * \return 0 if IMO to WCO lock is disabled.
 337:Generated_Source\PSoC4/CyLib.c ****     *
 338:Generated_Source\PSoC4/CyLib.c ****     *******************************************************************************/
 339:Generated_Source\PSoC4/CyLib.c ****     uint32 CySysClkImoGetWcoLock(void)
 340:Generated_Source\PSoC4/CyLib.c ****     {
 341:Generated_Source\PSoC4/CyLib.c ****         return ((0u != (CY_SYS_CLK_WCO_CONFIG_REG & CY_SYS_CLK_WCO_CONFIG_DPLL_ENABLE)) ?
 342:Generated_Source\PSoC4/CyLib.c ****                 (uint32) 1u :
 343:Generated_Source\PSoC4/CyLib.c ****                 (uint32) 0u);
 344:Generated_Source\PSoC4/CyLib.c ****     }
 345:Generated_Source\PSoC4/CyLib.c **** 
 346:Generated_Source\PSoC4/CyLib.c **** #endif /* (CY_IP_IMO_TRIMMABLE_BY_WCO) */
 347:Generated_Source\PSoC4/CyLib.c **** 
 348:Generated_Source\PSoC4/CyLib.c **** 
 349:Generated_Source\PSoC4/CyLib.c **** #if (CY_IP_IMO_TRIMMABLE_BY_USB)
 350:Generated_Source\PSoC4/CyLib.c **** 
 351:Generated_Source\PSoC4/CyLib.c ****     /*******************************************************************************
 352:Generated_Source\PSoC4/CyLib.c ****     * Function Name: CySysClkImoEnableUsbLock
 353:Generated_Source\PSoC4/CyLib.c ****     ****************************************************************************//**
 354:Generated_Source\PSoC4/CyLib.c ****     *
 355:Generated_Source\PSoC4/CyLib.c ****     * Enables the IMO to USB lock feature.
 356:Generated_Source\PSoC4/CyLib.c ****     *
 357:Generated_Source\PSoC4/CyLib.c ****     * This function must be called before CySysClkWriteImoFreq().
 358:Generated_Source\PSoC4/CyLib.c ****     *
 359:Generated_Source\PSoC4/CyLib.c ****     * This function is called from CySysClkImoStart() function if USB lock
 360:Generated_Source\PSoC4/CyLib.c ****     * selected in the Design Wide Resources tab.
 361:Generated_Source\PSoC4/CyLib.c ****     *
 362:Generated_Source\PSoC4/CyLib.c ****     * This is applicable for PSoC 4200L family of devices only. For PSoC 4200L
 363:Generated_Source\PSoC4/CyLib.c ****     * devices, the IMO can lock to either WCO or USB, but not both.
 364:Generated_Source\PSoC4/CyLib.c ****     *
 365:Generated_Source\PSoC4/CyLib.c ****     *******************************************************************************/
 366:Generated_Source\PSoC4/CyLib.c ****     void CySysClkImoEnableUsbLock(void)
 367:Generated_Source\PSoC4/CyLib.c ****     {
 368:Generated_Source\PSoC4/CyLib.c ****         /* Set oscillator interface control port to USB */
 369:Generated_Source\PSoC4/CyLib.c ****         #if (CY_IP_IMO_TRIMMABLE_BY_WCO && CY_IP_IMO_TRIMMABLE_BY_USB)
 370:Generated_Source\PSoC4/CyLib.c ****             CY_SYS_CLK_OSCINTF_CTL_REG = (CY_SYS_CLK_OSCINTF_CTL_REG & (uint32) ~CY_SYS_CLK_OSCINTF
 371:Generated_Source\PSoC4/CyLib.c ****                                           CY_SYS_CLK_OSCINTF_CTL_PORT_SEL_USB;
 372:Generated_Source\PSoC4/CyLib.c ****         #endif /* (CY_IP_IMO_TRIMMABLE_BY_WCO && CY_IP_IMO_TRIMMABLE_BY_USB) */
 373:Generated_Source\PSoC4/CyLib.c **** 
ARM GAS  C:\Users\rolf\AppData\Local\Temp\ccET1jSp.s 			page 8


 374:Generated_Source\PSoC4/CyLib.c ****         #if(CY_IP_SRSSV2)
 375:Generated_Source\PSoC4/CyLib.c **** 
 376:Generated_Source\PSoC4/CyLib.c ****             /* Save trims to restore in CySysClkImoDisableUsbLock() */
 377:Generated_Source\PSoC4/CyLib.c ****             CySysClkImoTrim4 = CY_SYS_CLK_IMO_TRIM4_REG;
 378:Generated_Source\PSoC4/CyLib.c ****             CySysClkImoTrim5 = CY_PWR_BG_TRIM5_REG;
 379:Generated_Source\PSoC4/CyLib.c **** 
 380:Generated_Source\PSoC4/CyLib.c ****             CySysClkImoSetImoTrims();
 381:Generated_Source\PSoC4/CyLib.c ****             CySysClkImoSetPwrBgTrim5();
 382:Generated_Source\PSoC4/CyLib.c **** 
 383:Generated_Source\PSoC4/CyLib.c ****         #endif  /* (CY_IP_SRSSV2) */
 384:Generated_Source\PSoC4/CyLib.c **** 
 385:Generated_Source\PSoC4/CyLib.c ****         CY_SYS_CLK_USBDEVv2_CR1_REG |= CY_SYS_CLK_USBDEVv2_CR1_ENABLE_LOCK;
 386:Generated_Source\PSoC4/CyLib.c ****     }
 387:Generated_Source\PSoC4/CyLib.c **** 
 388:Generated_Source\PSoC4/CyLib.c **** 
 389:Generated_Source\PSoC4/CyLib.c ****     /*******************************************************************************
 390:Generated_Source\PSoC4/CyLib.c ****     * Function Name: CySysClkImoDisableUsbLock
 391:Generated_Source\PSoC4/CyLib.c ****     ****************************************************************************//**
 392:Generated_Source\PSoC4/CyLib.c ****     *
 393:Generated_Source\PSoC4/CyLib.c ****     * Disables the IMO to USB lock feature.
 394:Generated_Source\PSoC4/CyLib.c ****     *
 395:Generated_Source\PSoC4/CyLib.c ****     * This function is called from CySysClkImoStop() function if USB lock selected
 396:Generated_Source\PSoC4/CyLib.c ****     * in the Design Wide Resources tab.
 397:Generated_Source\PSoC4/CyLib.c ****     *
 398:Generated_Source\PSoC4/CyLib.c ****     * This is applicable for PSoC 4200L family of devices only. For PSoC 4200L
 399:Generated_Source\PSoC4/CyLib.c ****     * devices, the IMO can lock to either WCO or USB, but not both.
 400:Generated_Source\PSoC4/CyLib.c ****     *
 401:Generated_Source\PSoC4/CyLib.c ****     *******************************************************************************/
 402:Generated_Source\PSoC4/CyLib.c ****     void CySysClkImoDisableUsbLock(void)
 403:Generated_Source\PSoC4/CyLib.c ****     {
 404:Generated_Source\PSoC4/CyLib.c ****         #if(CY_IP_SRSSV2)
 405:Generated_Source\PSoC4/CyLib.c ****             uint32 i;
 406:Generated_Source\PSoC4/CyLib.c **** 
 407:Generated_Source\PSoC4/CyLib.c ****             /* Get current IMO frequency based on the register value */
 408:Generated_Source\PSoC4/CyLib.c ****             uint32 freq = CY_SYS_CLK_IMO_MIN_FREQ_MHZ;
 409:Generated_Source\PSoC4/CyLib.c **** 
 410:Generated_Source\PSoC4/CyLib.c ****             for(i = 0u; i < CY_SYS_CLK_IMO_FREQ_TABLE_SIZE; i++)
 411:Generated_Source\PSoC4/CyLib.c ****             {
 412:Generated_Source\PSoC4/CyLib.c ****                 if ((uint8) (CY_SYS_CLK_IMO_TRIM2_REG & CY_SYS_CLK_IMO_FREQ_BITS_MASK) == cyImoFreq
 413:Generated_Source\PSoC4/CyLib.c ****                 {
 414:Generated_Source\PSoC4/CyLib.c ****                     freq = i + CY_SYS_CLK_IMO_FREQ_TABLE_OFFSET;
 415:Generated_Source\PSoC4/CyLib.c ****                     break;
 416:Generated_Source\PSoC4/CyLib.c ****                 }
 417:Generated_Source\PSoC4/CyLib.c ****             }
 418:Generated_Source\PSoC4/CyLib.c ****         #endif  /* (CY_IP_SRSSV2) */
 419:Generated_Source\PSoC4/CyLib.c **** 
 420:Generated_Source\PSoC4/CyLib.c ****         CY_SYS_CLK_USBDEVv2_CR1_REG &= (uint32) ~CY_SYS_CLK_USBDEVv2_CR1_ENABLE_LOCK;
 421:Generated_Source\PSoC4/CyLib.c **** 
 422:Generated_Source\PSoC4/CyLib.c ****         #if(CY_IP_SRSSV2)
 423:Generated_Source\PSoC4/CyLib.c ****             /* Restore IMO trim registers saved by CySysClkImoEnableUsbLock() */
 424:Generated_Source\PSoC4/CyLib.c ****             CY_SYS_CLK_IMO_TRIM4_REG = ((CY_SYS_CLK_IMO_TRIM4_REG & (uint32) ~CY_SYS_CLK_IMO_TRIM4_
 425:Generated_Source\PSoC4/CyLib.c ****                                         (CySysClkImoTrim4 & CY_SYS_CLK_IMO_TRIM4_GAIN_MASK));
 426:Generated_Source\PSoC4/CyLib.c ****             CY_PWR_BG_TRIM5_REG = CySysClkImoTrim5;
 427:Generated_Source\PSoC4/CyLib.c **** 
 428:Generated_Source\PSoC4/CyLib.c ****             CY_SYS_CLK_IMO_TRIM1_REG = CY_SFLASH_IMO_TRIM_REG(freq - CY_SYS_CLK_IMO_FREQ_TABLE_OFFS
 429:Generated_Source\PSoC4/CyLib.c **** 
 430:Generated_Source\PSoC4/CyLib.c ****         #endif  /* (CY_IP_SRSSV2) */
ARM GAS  C:\Users\rolf\AppData\Local\Temp\ccET1jSp.s 			page 9


 431:Generated_Source\PSoC4/CyLib.c ****     }
 432:Generated_Source\PSoC4/CyLib.c **** 
 433:Generated_Source\PSoC4/CyLib.c **** 
 434:Generated_Source\PSoC4/CyLib.c ****     /*******************************************************************************
 435:Generated_Source\PSoC4/CyLib.c ****     * Function Name: CySysClkImoGetUsbLock
 436:Generated_Source\PSoC4/CyLib.c ****     ****************************************************************************//**
 437:Generated_Source\PSoC4/CyLib.c ****     *
 438:Generated_Source\PSoC4/CyLib.c ****     * Reports the IMO to USB lock enable state.
 439:Generated_Source\PSoC4/CyLib.c ****     *
 440:Generated_Source\PSoC4/CyLib.c ****     * This is applicable for PSoC 4200L family of devices only. For PSoC 4200L
 441:Generated_Source\PSoC4/CyLib.c ****     * devices, the IMO can lock to either WCO or USB, but not both.
 442:Generated_Source\PSoC4/CyLib.c ****     *
 443:Generated_Source\PSoC4/CyLib.c ****     * \return 1 if IMO to USB lock is enabled.
 444:Generated_Source\PSoC4/CyLib.c ****     * \return 0 if IMO to USB lock is disabled.
 445:Generated_Source\PSoC4/CyLib.c ****     *
 446:Generated_Source\PSoC4/CyLib.c ****     *******************************************************************************/
 447:Generated_Source\PSoC4/CyLib.c ****     uint32 CySysClkImoGetUsbLock(void)
 448:Generated_Source\PSoC4/CyLib.c ****     {
 449:Generated_Source\PSoC4/CyLib.c ****         return ((0u != (CY_SYS_CLK_USBDEVv2_CR1_REG & CY_SYS_CLK_USBDEVv2_CR1_ENABLE_LOCK)) ?
 450:Generated_Source\PSoC4/CyLib.c ****                 (uint32) 1u :
 451:Generated_Source\PSoC4/CyLib.c ****                 (uint32) 0u);
 452:Generated_Source\PSoC4/CyLib.c ****     }
 453:Generated_Source\PSoC4/CyLib.c **** 
 454:Generated_Source\PSoC4/CyLib.c **** #if (CY_IP_SRSSV2)
 455:Generated_Source\PSoC4/CyLib.c **** 
 456:Generated_Source\PSoC4/CyLib.c ****     /*******************************************************************************
 457:Generated_Source\PSoC4/CyLib.c ****     * Function Name: CySysClkImoSetPwrBgTrim5
 458:Generated_Source\PSoC4/CyLib.c ****     ****************************************************************************//**
 459:Generated_Source\PSoC4/CyLib.c ****     *
 460:Generated_Source\PSoC4/CyLib.c ****     * Updates Bandgap trim register based on the test program revision.
 461:Generated_Source\PSoC4/CyLib.c ****     *
 462:Generated_Source\PSoC4/CyLib.c ****     *******************************************************************************/
 463:Generated_Source\PSoC4/CyLib.c ****     static void CySysClkImoSetPwrBgTrim5(void)
 464:Generated_Source\PSoC4/CyLib.c ****     {
  27              		.loc 1 464 0
  28              		.cfi_startproc
  29              		@ args = 0, pretend = 0, frame = 0
  30              		@ frame_needed = 0, uses_anonymous_args = 0
  31              		@ link register save eliminated.
 465:Generated_Source\PSoC4/CyLib.c ****         /* Get sort test revision number */
 466:Generated_Source\PSoC4/CyLib.c ****         uint32  testRev = ((CY_SFLASH_CRI_TESTPGM_REV_REG >> CYSFLASH_CRI_testpgm_rev__OFFSET) &
  32              		.loc 1 466 0
  33 0000 074B     		ldr	r3, .L4
  34 0002 1B78     		ldrb	r3, [r3]
  35              	.LVL0:
 467:Generated_Source\PSoC4/CyLib.c ****                             CYSFLASH_CRI_testpgm_rev_MASK);
 468:Generated_Source\PSoC4/CyLib.c **** 
 469:Generated_Source\PSoC4/CyLib.c ****         if(testRev <= CY_CRI_TESTPGM_9_REV)
  36              		.loc 1 469 0
  37 0004 272B     		cmp	r3, #39
  38 0006 05D8     		bhi	.L2
 470:Generated_Source\PSoC4/CyLib.c ****         {
 471:Generated_Source\PSoC4/CyLib.c ****             CY_PWR_BG_TRIM5_REG = CY_SFLASH_IMO_TMPCO0_REG;
  39              		.loc 1 471 0
  40 0008 064B     		ldr	r3, .L4+4
  41              	.LVL1:
  42 000a 1B78     		ldrb	r3, [r3]
ARM GAS  C:\Users\rolf\AppData\Local\Temp\ccET1jSp.s 			page 10


  43 000c DBB2     		uxtb	r3, r3
  44 000e 064A     		ldr	r2, .L4+8
  45 0010 1360     		str	r3, [r2]
  46 0012 04E0     		b	.L1
  47              	.LVL2:
  48              	.L2:
 472:Generated_Source\PSoC4/CyLib.c ****         }
 473:Generated_Source\PSoC4/CyLib.c ****         else
 474:Generated_Source\PSoC4/CyLib.c ****         {
 475:Generated_Source\PSoC4/CyLib.c ****             CY_PWR_BG_TRIM5_REG = CY_SFLASH_USBMODE_IMO_TEMPCO_REG;
  49              		.loc 1 475 0
  50 0014 054B     		ldr	r3, .L4+12
  51              	.LVL3:
  52 0016 1B78     		ldrb	r3, [r3]
  53 0018 DBB2     		uxtb	r3, r3
  54 001a 034A     		ldr	r2, .L4+8
  55 001c 1360     		str	r3, [r2]
  56              	.L1:
 476:Generated_Source\PSoC4/CyLib.c ****         }
 477:Generated_Source\PSoC4/CyLib.c ****     }
  57              		.loc 1 477 0
  58              		@ sp needed
  59 001e 7047     		bx	lr
  60              	.L5:
  61              		.align	2
  62              	.L4:
  63 0020 02F3FF0F 		.word	268432130
  64 0024 42F3FF0F 		.word	268432194
  65 0028 20FF0B40 		.word	1074528032
  66 002c C1F1FF0F 		.word	268431809
  67              		.cfi_endproc
  68              	.LFE9:
  69              		.size	CySysClkImoSetPwrBgTrim5, .-CySysClkImoSetPwrBgTrim5
  70              		.section	.text.CySysClkImoSetImoTrims,"ax",%progbits
  71              		.align	2
  72              		.code	16
  73              		.thumb_func
  74              		.type	CySysClkImoSetImoTrims, %function
  75              	CySysClkImoSetImoTrims:
  76              	.LFB10:
 478:Generated_Source\PSoC4/CyLib.c **** 
 479:Generated_Source\PSoC4/CyLib.c ****     /*******************************************************************************
 480:Generated_Source\PSoC4/CyLib.c ****     * Function Name: CySysClkImoSetImoTrims
 481:Generated_Source\PSoC4/CyLib.c ****     ****************************************************************************//**
 482:Generated_Source\PSoC4/CyLib.c ****     *
 483:Generated_Source\PSoC4/CyLib.c ****     * Updates IMO trim registers based on the IMO frequency and test program
 484:Generated_Source\PSoC4/CyLib.c ****     * revision.
 485:Generated_Source\PSoC4/CyLib.c ****     *
 486:Generated_Source\PSoC4/CyLib.c ****     *******************************************************************************/
 487:Generated_Source\PSoC4/CyLib.c ****     static void CySysClkImoSetImoTrims(void)
 488:Generated_Source\PSoC4/CyLib.c ****     {
  77              		.loc 1 488 0
  78              		.cfi_startproc
  79              		@ args = 0, pretend = 0, frame = 0
  80              		@ frame_needed = 0, uses_anonymous_args = 0
  81              		@ link register save eliminated.
  82              	.LVL4:
ARM GAS  C:\Users\rolf\AppData\Local\Temp\ccET1jSp.s 			page 11


 489:Generated_Source\PSoC4/CyLib.c ****         uint32 i;
 490:Generated_Source\PSoC4/CyLib.c **** 
 491:Generated_Source\PSoC4/CyLib.c ****         /* Get current IMO frequency based on the register value */
 492:Generated_Source\PSoC4/CyLib.c ****         uint32 freq = CY_SYS_CLK_IMO_MIN_FREQ_MHZ;
 493:Generated_Source\PSoC4/CyLib.c **** 
 494:Generated_Source\PSoC4/CyLib.c ****         for(i = 0u; i < CY_SYS_CLK_IMO_FREQ_TABLE_SIZE; i++)
  83              		.loc 1 494 0
  84 0000 0023     		movs	r3, #0
  85 0002 0AE0     		b	.L7
  86              	.LVL5:
  87              	.L10:
 495:Generated_Source\PSoC4/CyLib.c ****         {
 496:Generated_Source\PSoC4/CyLib.c ****             if ((uint8) (CY_SYS_CLK_IMO_TRIM2_REG & CY_SYS_CLK_IMO_FREQ_BITS_MASK) == cyImoFreqMhz2
  88              		.loc 1 496 0
  89 0004 204A     		ldr	r2, .L17
  90 0006 1268     		ldr	r2, [r2]
  91 0008 3F21     		movs	r1, #63
  92 000a 0A40     		ands	r2, r1
  93 000c 1F49     		ldr	r1, .L17+4
  94 000e C95C     		ldrb	r1, [r1, r3]
  95 0010 8A42     		cmp	r2, r1
  96 0012 01D1     		bne	.L8
 497:Generated_Source\PSoC4/CyLib.c ****             {
 498:Generated_Source\PSoC4/CyLib.c ****                 freq = i + CY_SYS_CLK_IMO_FREQ_TABLE_OFFSET;
  97              		.loc 1 498 0
  98 0014 0333     		adds	r3, r3, #3
  99              	.LVL6:
 499:Generated_Source\PSoC4/CyLib.c ****                 break;
 100              		.loc 1 499 0
 101 0016 03E0     		b	.L9
 102              	.LVL7:
 103              	.L8:
 494:Generated_Source\PSoC4/CyLib.c ****         {
 104              		.loc 1 494 0 discriminator 2
 105 0018 0133     		adds	r3, r3, #1
 106              	.LVL8:
 107              	.L7:
 494:Generated_Source\PSoC4/CyLib.c ****         {
 108              		.loc 1 494 0 is_stmt 0 discriminator 1
 109 001a 2D2B     		cmp	r3, #45
 110 001c F2D9     		bls	.L10
 492:Generated_Source\PSoC4/CyLib.c **** 
 111              		.loc 1 492 0 is_stmt 1
 112 001e 0323     		movs	r3, #3
 113              	.LVL9:
 114              	.L9:
 500:Generated_Source\PSoC4/CyLib.c ****             }
 501:Generated_Source\PSoC4/CyLib.c ****         }
 502:Generated_Source\PSoC4/CyLib.c **** 
 503:Generated_Source\PSoC4/CyLib.c ****         /* Get sort test revision number */
 504:Generated_Source\PSoC4/CyLib.c ****         uint32  testRev = ((CY_SFLASH_CRI_TESTPGM_REV_REG >> CYSFLASH_CRI_testpgm_rev__OFFSET) &
 115              		.loc 1 504 0
 116 0020 1B4A     		ldr	r2, .L17+8
 117 0022 1278     		ldrb	r2, [r2]
 118              	.LVL10:
 505:Generated_Source\PSoC4/CyLib.c ****             CYSFLASH_CRI_testpgm_rev_MASK);
 506:Generated_Source\PSoC4/CyLib.c **** 
ARM GAS  C:\Users\rolf\AppData\Local\Temp\ccET1jSp.s 			page 12


 507:Generated_Source\PSoC4/CyLib.c ****         if(testRev <= CY_CRI_TESTPGM_6_REV)
 119              		.loc 1 507 0
 120 0024 1B2A     		cmp	r2, #27
 121 0026 16D8     		bhi	.L11
 508:Generated_Source\PSoC4/CyLib.c ****         {
 509:Generated_Source\PSoC4/CyLib.c ****             if (48u == freq)
 122              		.loc 1 509 0
 123 0028 302B     		cmp	r3, #48
 124 002a 05D1     		bne	.L12
 510:Generated_Source\PSoC4/CyLib.c ****             {
 511:Generated_Source\PSoC4/CyLib.c ****                 CY_SYS_CLK_IMO_TRIM1_REG = (uint32) CY_SFLASH_IMO_TRIM_USBMODE_48_REG;
 125              		.loc 1 511 0
 126 002c 194B     		ldr	r3, .L17+12
 127              	.LVL11:
 128 002e 1B78     		ldrb	r3, [r3]
 129 0030 DBB2     		uxtb	r3, r3
 130 0032 194A     		ldr	r2, .L17+16
 131              	.LVL12:
 132 0034 1360     		str	r3, [r2]
 133 0036 06E0     		b	.L13
 134              	.LVL13:
 135              	.L12:
 512:Generated_Source\PSoC4/CyLib.c ****             }
 513:Generated_Source\PSoC4/CyLib.c ****             else if (24u == freq)
 136              		.loc 1 513 0
 137 0038 182B     		cmp	r3, #24
 138 003a 04D1     		bne	.L13
 514:Generated_Source\PSoC4/CyLib.c ****             {
 515:Generated_Source\PSoC4/CyLib.c ****                 CY_SYS_CLK_IMO_TRIM1_REG = (uint32) CY_SFLASH_IMO_TRIM_USBMODE_24_REG;
 139              		.loc 1 515 0
 140 003c 174B     		ldr	r3, .L17+20
 141              	.LVL14:
 142 003e 1B78     		ldrb	r3, [r3]
 143 0040 DBB2     		uxtb	r3, r3
 144 0042 154A     		ldr	r2, .L17+16
 145              	.LVL15:
 146 0044 1360     		str	r3, [r2]
 147              	.L13:
 516:Generated_Source\PSoC4/CyLib.c ****             }
 517:Generated_Source\PSoC4/CyLib.c ****             else
 518:Generated_Source\PSoC4/CyLib.c ****             {
 519:Generated_Source\PSoC4/CyLib.c ****                 /* Do nothing */
 520:Generated_Source\PSoC4/CyLib.c ****             }
 521:Generated_Source\PSoC4/CyLib.c **** 
 522:Generated_Source\PSoC4/CyLib.c ****             /* Set IMO Gain in IMO Trim Register 4 */
 523:Generated_Source\PSoC4/CyLib.c ****             CY_SYS_CLK_IMO_TRIM4_REG = (CY_SYS_CLK_IMO_TRIM4_REG & (uint32) ~CY_SYS_CLK_IMO_TRIM4_G
 148              		.loc 1 523 0
 149 0046 1649     		ldr	r1, .L17+24
 150 0048 0B68     		ldr	r3, [r1]
 151 004a 1F22     		movs	r2, #31
 152 004c 9343     		bics	r3, r2
 153 004e 173A     		subs	r2, r2, #23
 154 0050 1343     		orrs	r3, r2
 155 0052 0B60     		str	r3, [r1]
 156 0054 16E0     		b	.L6
 157              	.LVL16:
 158              	.L11:
ARM GAS  C:\Users\rolf\AppData\Local\Temp\ccET1jSp.s 			page 13


 524:Generated_Source\PSoC4/CyLib.c ****                                         CY_SYS_CLK_IMO_TRIM4_USB_GAIN;
 525:Generated_Source\PSoC4/CyLib.c ****         }
 526:Generated_Source\PSoC4/CyLib.c ****         else
 527:Generated_Source\PSoC4/CyLib.c ****         {
 528:Generated_Source\PSoC4/CyLib.c ****             if (48u == freq)
 159              		.loc 1 528 0
 160 0056 302B     		cmp	r3, #48
 161 0058 05D1     		bne	.L15
 529:Generated_Source\PSoC4/CyLib.c ****             {
 530:Generated_Source\PSoC4/CyLib.c ****                 CY_SYS_CLK_IMO_TRIM1_REG = (uint32) CY_SFLASH_CU_IMO_TRIM_USBMODE_48_REG;
 162              		.loc 1 530 0
 163 005a 124B     		ldr	r3, .L17+28
 164              	.LVL17:
 165 005c 1B78     		ldrb	r3, [r3]
 166 005e DBB2     		uxtb	r3, r3
 167 0060 0D4A     		ldr	r2, .L17+16
 168              	.LVL18:
 169 0062 1360     		str	r3, [r2]
 170 0064 06E0     		b	.L16
 171              	.LVL19:
 172              	.L15:
 531:Generated_Source\PSoC4/CyLib.c ****             }
 532:Generated_Source\PSoC4/CyLib.c ****             else if (24u == freq)
 173              		.loc 1 532 0
 174 0066 182B     		cmp	r3, #24
 175 0068 04D1     		bne	.L16
 533:Generated_Source\PSoC4/CyLib.c ****             {
 534:Generated_Source\PSoC4/CyLib.c ****                 CY_SYS_CLK_IMO_TRIM1_REG = (uint32) CY_SFLASH_CU_IMO_TRIM_USBMODE_24_REG;
 176              		.loc 1 534 0
 177 006a 0F4B     		ldr	r3, .L17+32
 178              	.LVL20:
 179 006c 1B78     		ldrb	r3, [r3]
 180 006e DBB2     		uxtb	r3, r3
 181 0070 094A     		ldr	r2, .L17+16
 182              	.LVL21:
 183 0072 1360     		str	r3, [r2]
 184              	.L16:
 535:Generated_Source\PSoC4/CyLib.c ****             }
 536:Generated_Source\PSoC4/CyLib.c ****             else
 537:Generated_Source\PSoC4/CyLib.c ****             {
 538:Generated_Source\PSoC4/CyLib.c ****                 /* Do nothing */
 539:Generated_Source\PSoC4/CyLib.c ****             }
 540:Generated_Source\PSoC4/CyLib.c **** 
 541:Generated_Source\PSoC4/CyLib.c ****             /* Set IMO Gain in IMO Trim Register 4 */
 542:Generated_Source\PSoC4/CyLib.c ****             CY_SYS_CLK_IMO_TRIM4_REG = (CY_SYS_CLK_IMO_TRIM4_REG & (uint32) ~CY_SYS_CLK_IMO_TRIM4_G
 185              		.loc 1 542 0
 186 0074 0A4A     		ldr	r2, .L17+24
 187 0076 1368     		ldr	r3, [r2]
 188 0078 1F21     		movs	r1, #31
 189 007a 8B43     		bics	r3, r1
 543:Generated_Source\PSoC4/CyLib.c ****                                         CY_SFLASH_USBMODE_IMO_GAIN_TRIM_REG;
 190              		.loc 1 543 0
 191 007c 0B49     		ldr	r1, .L17+36
 192 007e 0978     		ldrb	r1, [r1]
 542:Generated_Source\PSoC4/CyLib.c ****                                         CY_SFLASH_USBMODE_IMO_GAIN_TRIM_REG;
 193              		.loc 1 542 0
 194 0080 0B43     		orrs	r3, r1
ARM GAS  C:\Users\rolf\AppData\Local\Temp\ccET1jSp.s 			page 14


 195 0082 1360     		str	r3, [r2]
 196              	.L6:
 544:Generated_Source\PSoC4/CyLib.c ****         }
 545:Generated_Source\PSoC4/CyLib.c ****     }
 197              		.loc 1 545 0
 198              		@ sp needed
 199 0084 7047     		bx	lr
 200              	.L18:
 201 0086 C046     		.align	2
 202              	.L17:
 203 0088 2CFF0B40 		.word	1074528044
 204 008c 00000000 		.word	.LANCHOR0
 205 0090 02F3FF0F 		.word	268432130
 206 0094 3FF3FF0F 		.word	268432191
 207 0098 28FF0B40 		.word	1074528040
 208 009c 3EF3FF0F 		.word	268432190
 209 00a0 34FF0B40 		.word	1074528052
 210 00a4 C3F1FF0F 		.word	268431811
 211 00a8 C2F1FF0F 		.word	268431810
 212 00ac C0F1FF0F 		.word	268431808
 213              		.cfi_endproc
 214              	.LFE10:
 215              		.size	CySysClkImoSetImoTrims, .-CySysClkImoSetImoTrims
 216              		.section	.text.CySysClkImoDisableWcoLock,"ax",%progbits
 217              		.align	2
 218              		.global	CySysClkImoDisableWcoLock
 219              		.code	16
 220              		.thumb_func
 221              		.type	CySysClkImoDisableWcoLock, %function
 222              	CySysClkImoDisableWcoLock:
 223              	.LFB4:
 284:Generated_Source\PSoC4/CyLib.c ****         #if(CY_IP_SRSSV2)
 224              		.loc 1 284 0
 225              		.cfi_startproc
 226              		@ args = 0, pretend = 0, frame = 0
 227              		@ frame_needed = 0, uses_anonymous_args = 0
 228              		@ link register save eliminated.
 229              	.LVL22:
 294:Generated_Source\PSoC4/CyLib.c ****             {
 230              		.loc 1 294 0
 231 0000 0023     		movs	r3, #0
 232 0002 0AE0     		b	.L20
 233              	.LVL23:
 234              	.L23:
 296:Generated_Source\PSoC4/CyLib.c ****                 {
 235              		.loc 1 296 0
 236 0004 0D4A     		ldr	r2, .L24
 237 0006 1268     		ldr	r2, [r2]
 238 0008 3F21     		movs	r1, #63
 239 000a 0A40     		ands	r2, r1
 240 000c 0C49     		ldr	r1, .L24+4
 241 000e C95C     		ldrb	r1, [r1, r3]
 242 0010 8A42     		cmp	r2, r1
 243 0012 01D1     		bne	.L21
 298:Generated_Source\PSoC4/CyLib.c ****                     break;
 244              		.loc 1 298 0
 245 0014 0333     		adds	r3, r3, #3
ARM GAS  C:\Users\rolf\AppData\Local\Temp\ccET1jSp.s 			page 15


 246              	.LVL24:
 299:Generated_Source\PSoC4/CyLib.c ****                 }
 247              		.loc 1 299 0
 248 0016 03E0     		b	.L22
 249              	.LVL25:
 250              	.L21:
 294:Generated_Source\PSoC4/CyLib.c ****             {
 251              		.loc 1 294 0 discriminator 2
 252 0018 0133     		adds	r3, r3, #1
 253              	.LVL26:
 254              	.L20:
 294:Generated_Source\PSoC4/CyLib.c ****             {
 255              		.loc 1 294 0 is_stmt 0 discriminator 1
 256 001a 2D2B     		cmp	r3, #45
 257 001c F2D9     		bls	.L23
 293:Generated_Source\PSoC4/CyLib.c ****             for(i = 0u; i < CY_SYS_CLK_IMO_FREQ_TABLE_SIZE; i++)
 258              		.loc 1 293 0 is_stmt 1
 259 001e 0323     		movs	r3, #3
 260              	.LVL27:
 261              	.L22:
 316:Generated_Source\PSoC4/CyLib.c **** 
 262              		.loc 1 316 0
 263 0020 0849     		ldr	r1, .L24+8
 264 0022 0868     		ldr	r0, [r1]
 265 0024 084A     		ldr	r2, .L24+12
 266 0026 0240     		ands	r2, r0
 267 0028 0A60     		str	r2, [r1]
 321:Generated_Source\PSoC4/CyLib.c ****         #endif
 268              		.loc 1 321 0
 269 002a 084A     		ldr	r2, .L24+16
 270 002c 9446     		mov	ip, r2
 271 002e 6344     		add	r3, r3, ip
 272              	.LVL28:
 273 0030 1B78     		ldrb	r3, [r3]
 274              	.LVL29:
 275 0032 DBB2     		uxtb	r3, r3
 276 0034 064A     		ldr	r2, .L24+20
 277 0036 1360     		str	r3, [r2]
 323:Generated_Source\PSoC4/CyLib.c **** 
 278              		.loc 1 323 0
 279              		@ sp needed
 280 0038 7047     		bx	lr
 281              	.L25:
 282 003a C046     		.align	2
 283              	.L24:
 284 003c 2CFF0B40 		.word	1074528044
 285 0040 00000000 		.word	.LANCHOR0
 286 0044 00002240 		.word	1075970048
 287 0048 FFFFFFBF 		.word	-1073741825
 288 004c 4DF3FF0F 		.word	268432205
 289 0050 28FF0B40 		.word	1074528040
 290              		.cfi_endproc
 291              	.LFE4:
 292              		.size	CySysClkImoDisableWcoLock, .-CySysClkImoDisableWcoLock
 293              		.section	.text.CySysClkImoGetWcoLock,"ax",%progbits
 294              		.align	2
 295              		.global	CySysClkImoGetWcoLock
ARM GAS  C:\Users\rolf\AppData\Local\Temp\ccET1jSp.s 			page 16


 296              		.code	16
 297              		.thumb_func
 298              		.type	CySysClkImoGetWcoLock, %function
 299              	CySysClkImoGetWcoLock:
 300              	.LFB5:
 340:Generated_Source\PSoC4/CyLib.c ****         return ((0u != (CY_SYS_CLK_WCO_CONFIG_REG & CY_SYS_CLK_WCO_CONFIG_DPLL_ENABLE)) ?
 301              		.loc 1 340 0
 302              		.cfi_startproc
 303              		@ args = 0, pretend = 0, frame = 0
 304              		@ frame_needed = 0, uses_anonymous_args = 0
 305              		@ link register save eliminated.
 341:Generated_Source\PSoC4/CyLib.c ****                 (uint32) 1u :
 306              		.loc 1 341 0
 307 0000 034B     		ldr	r3, .L28
 308 0002 1868     		ldr	r0, [r3]
 309 0004 8023     		movs	r3, #128
 310 0006 DB05     		lsls	r3, r3, #23
 311 0008 1840     		ands	r0, r3
 342:Generated_Source\PSoC4/CyLib.c ****                 (uint32) 0u);
 312              		.loc 1 342 0
 313 000a 00D0     		beq	.L27
 314 000c 0120     		movs	r0, #1
 315              	.L27:
 344:Generated_Source\PSoC4/CyLib.c **** 
 316              		.loc 1 344 0
 317              		@ sp needed
 318 000e 7047     		bx	lr
 319              	.L29:
 320              		.align	2
 321              	.L28:
 322 0010 00002240 		.word	1075970048
 323              		.cfi_endproc
 324              	.LFE5:
 325              		.size	CySysClkImoGetWcoLock, .-CySysClkImoGetWcoLock
 326              		.section	.text.CySysClkImoEnableUsbLock,"ax",%progbits
 327              		.align	2
 328              		.global	CySysClkImoEnableUsbLock
 329              		.code	16
 330              		.thumb_func
 331              		.type	CySysClkImoEnableUsbLock, %function
 332              	CySysClkImoEnableUsbLock:
 333              	.LFB6:
 367:Generated_Source\PSoC4/CyLib.c ****         /* Set oscillator interface control port to USB */
 334              		.loc 1 367 0
 335              		.cfi_startproc
 336              		@ args = 0, pretend = 0, frame = 0
 337              		@ frame_needed = 0, uses_anonymous_args = 0
 338 0000 10B5     		push	{r4, lr}
 339              		.cfi_def_cfa_offset 8
 340              		.cfi_offset 4, -8
 341              		.cfi_offset 14, -4
 370:Generated_Source\PSoC4/CyLib.c ****                                           CY_SYS_CLK_OSCINTF_CTL_PORT_SEL_USB;
 342              		.loc 1 370 0
 343 0002 0B4A     		ldr	r2, .L31
 344 0004 1368     		ldr	r3, [r2]
 345 0006 0121     		movs	r1, #1
 346 0008 8B43     		bics	r3, r1
ARM GAS  C:\Users\rolf\AppData\Local\Temp\ccET1jSp.s 			page 17


 347 000a 1360     		str	r3, [r2]
 377:Generated_Source\PSoC4/CyLib.c ****             CySysClkImoTrim5 = CY_PWR_BG_TRIM5_REG;
 348              		.loc 1 377 0
 349 000c 094B     		ldr	r3, .L31+4
 350 000e 1A68     		ldr	r2, [r3]
 351 0010 094B     		ldr	r3, .L31+8
 352 0012 1A60     		str	r2, [r3]
 378:Generated_Source\PSoC4/CyLib.c **** 
 353              		.loc 1 378 0
 354 0014 094A     		ldr	r2, .L31+12
 355 0016 1268     		ldr	r2, [r2]
 356 0018 5A60     		str	r2, [r3, #4]
 380:Generated_Source\PSoC4/CyLib.c ****             CySysClkImoSetPwrBgTrim5();
 357              		.loc 1 380 0
 358 001a FFF7FEFF 		bl	CySysClkImoSetImoTrims
 359              	.LVL30:
 381:Generated_Source\PSoC4/CyLib.c **** 
 360              		.loc 1 381 0
 361 001e FFF7FEFF 		bl	CySysClkImoSetPwrBgTrim5
 362              	.LVL31:
 385:Generated_Source\PSoC4/CyLib.c ****     }
 363              		.loc 1 385 0
 364 0022 074A     		ldr	r2, .L31+16
 365 0024 1168     		ldr	r1, [r2]
 366 0026 0223     		movs	r3, #2
 367 0028 0B43     		orrs	r3, r1
 368 002a 1360     		str	r3, [r2]
 386:Generated_Source\PSoC4/CyLib.c **** 
 369              		.loc 1 386 0
 370              		@ sp needed
 371 002c 10BD     		pop	{r4, pc}
 372              	.L32:
 373 002e C046     		.align	2
 374              	.L31:
 375 0030 50000C40 		.word	1074528336
 376 0034 34FF0B40 		.word	1074528052
 377 0038 00000000 		.word	.LANCHOR1
 378 003c 20FF0B40 		.word	1074528032
 379 0040 24002C40 		.word	1076625444
 380              		.cfi_endproc
 381              	.LFE6:
 382              		.size	CySysClkImoEnableUsbLock, .-CySysClkImoEnableUsbLock
 383              		.section	.text.CySysClkImoStart,"ax",%progbits
 384              		.align	2
 385              		.global	CySysClkImoStart
 386              		.code	16
 387              		.thumb_func
 388              		.type	CySysClkImoStart, %function
 389              	CySysClkImoStart:
 390              	.LFB1:
 106:Generated_Source\PSoC4/CyLib.c ****     CY_SYS_CLK_IMO_CONFIG_REG |= CY_SYS_CLK_IMO_CONFIG_ENABLE;
 391              		.loc 1 106 0
 392              		.cfi_startproc
 393              		@ args = 0, pretend = 0, frame = 0
 394              		@ frame_needed = 0, uses_anonymous_args = 0
 395 0000 10B5     		push	{r4, lr}
 396              		.cfi_def_cfa_offset 8
ARM GAS  C:\Users\rolf\AppData\Local\Temp\ccET1jSp.s 			page 18


 397              		.cfi_offset 4, -8
 398              		.cfi_offset 14, -4
 107:Generated_Source\PSoC4/CyLib.c **** 
 399              		.loc 1 107 0
 400 0002 044A     		ldr	r2, .L34
 401 0004 1368     		ldr	r3, [r2]
 402 0006 8021     		movs	r1, #128
 403 0008 0906     		lsls	r1, r1, #24
 404 000a 0B43     		orrs	r3, r1
 405 000c 1360     		str	r3, [r2]
 118:Generated_Source\PSoC4/CyLib.c ****         #endif  /* (CYDEV_IMO_TRIMMED_BY_USB == 1u) */
 406              		.loc 1 118 0
 407 000e FFF7FEFF 		bl	CySysClkImoEnableUsbLock
 408              	.LVL32:
 122:Generated_Source\PSoC4/CyLib.c **** 
 409              		.loc 1 122 0
 410              		@ sp needed
 411 0012 10BD     		pop	{r4, pc}
 412              	.L35:
 413              		.align	2
 414              	.L34:
 415 0014 08010B40 		.word	1074462984
 416              		.cfi_endproc
 417              	.LFE1:
 418              		.size	CySysClkImoStart, .-CySysClkImoStart
 419              		.section	.text.CySysClkImoDisableUsbLock,"ax",%progbits
 420              		.align	2
 421              		.global	CySysClkImoDisableUsbLock
 422              		.code	16
 423              		.thumb_func
 424              		.type	CySysClkImoDisableUsbLock, %function
 425              	CySysClkImoDisableUsbLock:
 426              	.LFB7:
 403:Generated_Source\PSoC4/CyLib.c ****         #if(CY_IP_SRSSV2)
 427              		.loc 1 403 0
 428              		.cfi_startproc
 429              		@ args = 0, pretend = 0, frame = 0
 430              		@ frame_needed = 0, uses_anonymous_args = 0
 431 0000 30B5     		push	{r4, r5, lr}
 432              		.cfi_def_cfa_offset 12
 433              		.cfi_offset 4, -12
 434              		.cfi_offset 5, -8
 435              		.cfi_offset 14, -4
 436              	.LVL33:
 410:Generated_Source\PSoC4/CyLib.c ****             {
 437              		.loc 1 410 0
 438 0002 0023     		movs	r3, #0
 439 0004 0AE0     		b	.L37
 440              	.LVL34:
 441              	.L40:
 412:Generated_Source\PSoC4/CyLib.c ****                 {
 442              		.loc 1 412 0
 443 0006 134A     		ldr	r2, .L41
 444 0008 1268     		ldr	r2, [r2]
 445 000a 3F21     		movs	r1, #63
 446 000c 0A40     		ands	r2, r1
 447 000e 1249     		ldr	r1, .L41+4
ARM GAS  C:\Users\rolf\AppData\Local\Temp\ccET1jSp.s 			page 19


 448 0010 C95C     		ldrb	r1, [r1, r3]
 449 0012 8A42     		cmp	r2, r1
 450 0014 01D1     		bne	.L38
 414:Generated_Source\PSoC4/CyLib.c ****                     break;
 451              		.loc 1 414 0
 452 0016 0333     		adds	r3, r3, #3
 453              	.LVL35:
 415:Generated_Source\PSoC4/CyLib.c ****                 }
 454              		.loc 1 415 0
 455 0018 03E0     		b	.L39
 456              	.LVL36:
 457              	.L38:
 410:Generated_Source\PSoC4/CyLib.c ****             {
 458              		.loc 1 410 0 discriminator 2
 459 001a 0133     		adds	r3, r3, #1
 460              	.LVL37:
 461              	.L37:
 410:Generated_Source\PSoC4/CyLib.c ****             {
 462              		.loc 1 410 0 is_stmt 0 discriminator 1
 463 001c 2D2B     		cmp	r3, #45
 464 001e F2D9     		bls	.L40
 408:Generated_Source\PSoC4/CyLib.c **** 
 465              		.loc 1 408 0 is_stmt 1
 466 0020 0323     		movs	r3, #3
 467              	.LVL38:
 468              	.L39:
 420:Generated_Source\PSoC4/CyLib.c **** 
 469              		.loc 1 420 0
 470 0022 0E49     		ldr	r1, .L41+8
 471 0024 0A68     		ldr	r2, [r1]
 472 0026 0220     		movs	r0, #2
 473 0028 8243     		bics	r2, r0
 474 002a 0A60     		str	r2, [r1]
 424:Generated_Source\PSoC4/CyLib.c ****                                         (CySysClkImoTrim4 & CY_SYS_CLK_IMO_TRIM4_GAIN_MASK));
 475              		.loc 1 424 0
 476 002c 0C4C     		ldr	r4, .L41+12
 477 002e 2168     		ldr	r1, [r4]
 478 0030 1F22     		movs	r2, #31
 479 0032 9143     		bics	r1, r2
 425:Generated_Source\PSoC4/CyLib.c ****             CY_PWR_BG_TRIM5_REG = CySysClkImoTrim5;
 480              		.loc 1 425 0
 481 0034 0B48     		ldr	r0, .L41+16
 482 0036 0568     		ldr	r5, [r0]
 483 0038 2A40     		ands	r2, r5
 424:Generated_Source\PSoC4/CyLib.c ****                                         (CySysClkImoTrim4 & CY_SYS_CLK_IMO_TRIM4_GAIN_MASK));
 484              		.loc 1 424 0
 485 003a 0A43     		orrs	r2, r1
 486 003c 2260     		str	r2, [r4]
 426:Generated_Source\PSoC4/CyLib.c **** 
 487              		.loc 1 426 0
 488 003e 4168     		ldr	r1, [r0, #4]
 489 0040 094A     		ldr	r2, .L41+20
 490 0042 1160     		str	r1, [r2]
 428:Generated_Source\PSoC4/CyLib.c **** 
 491              		.loc 1 428 0
 492 0044 094A     		ldr	r2, .L41+24
 493 0046 9446     		mov	ip, r2
ARM GAS  C:\Users\rolf\AppData\Local\Temp\ccET1jSp.s 			page 20


 494 0048 6344     		add	r3, r3, ip
 495              	.LVL39:
 496 004a 1B78     		ldrb	r3, [r3]
 497              	.LVL40:
 498 004c DBB2     		uxtb	r3, r3
 499 004e 084A     		ldr	r2, .L41+28
 500 0050 1360     		str	r3, [r2]
 431:Generated_Source\PSoC4/CyLib.c **** 
 501              		.loc 1 431 0
 502              		@ sp needed
 503 0052 30BD     		pop	{r4, r5, pc}
 504              	.L42:
 505              		.align	2
 506              	.L41:
 507 0054 2CFF0B40 		.word	1074528044
 508 0058 00000000 		.word	.LANCHOR0
 509 005c 24002C40 		.word	1076625444
 510 0060 34FF0B40 		.word	1074528052
 511 0064 00000000 		.word	.LANCHOR1
 512 0068 20FF0B40 		.word	1074528032
 513 006c 4DF3FF0F 		.word	268432205
 514 0070 28FF0B40 		.word	1074528040
 515              		.cfi_endproc
 516              	.LFE7:
 517              		.size	CySysClkImoDisableUsbLock, .-CySysClkImoDisableUsbLock
 518              		.section	.text.CySysClkImoStop,"ax",%progbits
 519              		.align	2
 520              		.global	CySysClkImoStop
 521              		.code	16
 522              		.thumb_func
 523              		.type	CySysClkImoStop, %function
 524              	CySysClkImoStop:
 525              	.LFB2:
 139:Generated_Source\PSoC4/CyLib.c ****     #if (CY_IP_IMO_TRIMMABLE_BY_WCO)
 526              		.loc 1 139 0
 527              		.cfi_startproc
 528              		@ args = 0, pretend = 0, frame = 0
 529              		@ frame_needed = 0, uses_anonymous_args = 0
 530 0000 10B5     		push	{r4, lr}
 531              		.cfi_def_cfa_offset 8
 532              		.cfi_offset 4, -8
 533              		.cfi_offset 14, -4
 141:Generated_Source\PSoC4/CyLib.c ****     #endif  /* (CY_IP_IMO_TRIMMABLE_BY_WCO) */
 534              		.loc 1 141 0
 535 0002 FFF7FEFF 		bl	CySysClkImoDisableWcoLock
 536              	.LVL41:
 145:Generated_Source\PSoC4/CyLib.c ****     #endif  /* (CY_IP_IMO_TRIMMABLE_BY_USB) */
 537              		.loc 1 145 0
 538 0006 FFF7FEFF 		bl	CySysClkImoDisableUsbLock
 539              	.LVL42:
 148:Generated_Source\PSoC4/CyLib.c **** }
 540              		.loc 1 148 0
 541 000a 034A     		ldr	r2, .L44
 542 000c 1368     		ldr	r3, [r2]
 543 000e 5B00     		lsls	r3, r3, #1
 544 0010 5B08     		lsrs	r3, r3, #1
 545 0012 1360     		str	r3, [r2]
ARM GAS  C:\Users\rolf\AppData\Local\Temp\ccET1jSp.s 			page 21


 149:Generated_Source\PSoC4/CyLib.c **** 
 546              		.loc 1 149 0
 547              		@ sp needed
 548 0014 10BD     		pop	{r4, pc}
 549              	.L45:
 550 0016 C046     		.align	2
 551              	.L44:
 552 0018 08010B40 		.word	1074462984
 553              		.cfi_endproc
 554              	.LFE2:
 555              		.size	CySysClkImoStop, .-CySysClkImoStop
 556              		.section	.text.CySysClkImoGetUsbLock,"ax",%progbits
 557              		.align	2
 558              		.global	CySysClkImoGetUsbLock
 559              		.code	16
 560              		.thumb_func
 561              		.type	CySysClkImoGetUsbLock, %function
 562              	CySysClkImoGetUsbLock:
 563              	.LFB8:
 448:Generated_Source\PSoC4/CyLib.c ****         return ((0u != (CY_SYS_CLK_USBDEVv2_CR1_REG & CY_SYS_CLK_USBDEVv2_CR1_ENABLE_LOCK)) ?
 564              		.loc 1 448 0
 565              		.cfi_startproc
 566              		@ args = 0, pretend = 0, frame = 0
 567              		@ frame_needed = 0, uses_anonymous_args = 0
 568              		@ link register save eliminated.
 449:Generated_Source\PSoC4/CyLib.c ****                 (uint32) 1u :
 569              		.loc 1 449 0
 570 0000 034B     		ldr	r3, .L48
 571 0002 1B68     		ldr	r3, [r3]
 572 0004 0220     		movs	r0, #2
 573 0006 1840     		ands	r0, r3
 450:Generated_Source\PSoC4/CyLib.c ****                 (uint32) 0u);
 574              		.loc 1 450 0
 575 0008 00D0     		beq	.L47
 576 000a 0120     		movs	r0, #1
 577              	.L47:
 452:Generated_Source\PSoC4/CyLib.c **** 
 578              		.loc 1 452 0
 579              		@ sp needed
 580 000c 7047     		bx	lr
 581              	.L49:
 582 000e C046     		.align	2
 583              	.L48:
 584 0010 24002C40 		.word	1076625444
 585              		.cfi_endproc
 586              	.LFE8:
 587              		.size	CySysClkImoGetUsbLock, .-CySysClkImoGetUsbLock
 588              		.section	.text.CySysClkWriteHfclkDirect,"ax",%progbits
 589              		.align	2
 590              		.global	CySysClkWriteHfclkDirect
 591              		.code	16
 592              		.thumb_func
 593              		.type	CySysClkWriteHfclkDirect, %function
 594              	CySysClkWriteHfclkDirect:
 595              	.LFB11:
 546:Generated_Source\PSoC4/CyLib.c ****     #endif /* (CY_IP_SRSSV2) */
 547:Generated_Source\PSoC4/CyLib.c **** 
ARM GAS  C:\Users\rolf\AppData\Local\Temp\ccET1jSp.s 			page 22


 548:Generated_Source\PSoC4/CyLib.c **** #endif  /* (CY_IP_IMO_TRIMMABLE_BY_USB) */
 549:Generated_Source\PSoC4/CyLib.c **** 
 550:Generated_Source\PSoC4/CyLib.c **** 
 551:Generated_Source\PSoC4/CyLib.c **** /*******************************************************************************
 552:Generated_Source\PSoC4/CyLib.c **** * Function Name: CySysClkWriteHfclkDirect
 553:Generated_Source\PSoC4/CyLib.c **** ****************************************************************************//**
 554:Generated_Source\PSoC4/CyLib.c **** *
 555:Generated_Source\PSoC4/CyLib.c **** * Selects the direct source for the HFCLK.
 556:Generated_Source\PSoC4/CyLib.c **** *
 557:Generated_Source\PSoC4/CyLib.c **** * The new source must be running and stable before calling this function.
 558:Generated_Source\PSoC4/CyLib.c **** *
 559:Generated_Source\PSoC4/CyLib.c **** * PSoC 4000:
 560:Generated_Source\PSoC4/CyLib.c **** * The SYSCLK has a maximum speed of 16 MHz, so HFCLK and SYSCLK dividers should
 561:Generated_Source\PSoC4/CyLib.c **** * be selected in a way to not to exceed 16 MHz for the System clock.
 562:Generated_Source\PSoC4/CyLib.c **** *
 563:Generated_Source\PSoC4/CyLib.c **** * If the SYSCLK clock frequency increases during device operation, call
 564:Generated_Source\PSoC4/CyLib.c **** * CySysFlashSetWaitCycles() with the appropriate parameter to adjust the number
 565:Generated_Source\PSoC4/CyLib.c **** * of clock cycles the cache will wait before sampling data comes back from
 566:Generated_Source\PSoC4/CyLib.c **** * Flash. If the SYSCLK clock frequency decreases, you can call
 567:Generated_Source\PSoC4/CyLib.c **** * CySysFlashSetWaitCycles() to improve the CPU performance. See
 568:Generated_Source\PSoC4/CyLib.c **** * CySysFlashSetWaitCycles() description for more information.
 569:Generated_Source\PSoC4/CyLib.c **** *
 570:Generated_Source\PSoC4/CyLib.c **** * Do not select PLL as the source for HFCLK if PLL output frequency exceeds
 571:Generated_Source\PSoC4/CyLib.c **** * maximum permissible value for HFCLK.
 572:Generated_Source\PSoC4/CyLib.c **** *
 573:Generated_Source\PSoC4/CyLib.c **** * \param clkSelect One of the available HFCLK direct sources.
 574:Generated_Source\PSoC4/CyLib.c **** * CY_SYS_CLK_HFCLK_IMO     IMO.
 575:Generated_Source\PSoC4/CyLib.c **** * CY_SYS_CLK_HFCLK_EXTCLK  External clock pin.
 576:Generated_Source\PSoC4/CyLib.c **** * CY_SYS_CLK_HFCLK_ECO     External crystal oscillator. Applicable for
 577:Generated_Source\PSoC4/CyLib.c **** *                          PSoC 4100 BLE / PSoC 4200 BLE / PSoC 4200L /
 578:Generated_Source\PSoC4/CyLib.c **** *                          4100S / 4500 with ECO.
 579:Generated_Source\PSoC4/CyLib.c **** * CY_SYS_CLK_HFCLK_PLL0    PLL#0. Applicable for PSoC 4200L /
 580:Generated_Source\PSoC4/CyLib.c **** *                          4100S / 4500 with PLL.
 581:Generated_Source\PSoC4/CyLib.c **** * CY_SYS_CLK_HFCLK_PLL1    PLL#1. Applicable for PSoC 4200L.
 582:Generated_Source\PSoC4/CyLib.c **** *
 583:Generated_Source\PSoC4/CyLib.c **** *******************************************************************************/
 584:Generated_Source\PSoC4/CyLib.c **** void CySysClkWriteHfclkDirect(uint32 clkSelect)
 585:Generated_Source\PSoC4/CyLib.c **** {
 596              		.loc 1 585 0
 597              		.cfi_startproc
 598              		@ args = 0, pretend = 0, frame = 0
 599              		@ frame_needed = 0, uses_anonymous_args = 0
 600              	.LVL43:
 601 0000 10B5     		push	{r4, lr}
 602              		.cfi_def_cfa_offset 8
 603              		.cfi_offset 4, -8
 604              		.cfi_offset 14, -4
 605 0002 0400     		movs	r4, r0
 586:Generated_Source\PSoC4/CyLib.c ****     uint8  interruptState;
 587:Generated_Source\PSoC4/CyLib.c ****     uint32 tmpReg;
 588:Generated_Source\PSoC4/CyLib.c **** 
 589:Generated_Source\PSoC4/CyLib.c ****     #if (CY_IP_SRSSLT && CY_IP_PLL)
 590:Generated_Source\PSoC4/CyLib.c ****         uint8 i = 0u;
 591:Generated_Source\PSoC4/CyLib.c ****     #endif /* (CY_IP_SRSSLT && CY_IP_PLL) */
 592:Generated_Source\PSoC4/CyLib.c **** 
 593:Generated_Source\PSoC4/CyLib.c ****     interruptState = CyEnterCriticalSection();
 606              		.loc 1 593 0
ARM GAS  C:\Users\rolf\AppData\Local\Temp\ccET1jSp.s 			page 23


 607 0004 FFF7FEFF 		bl	CyEnterCriticalSection
 608              	.LVL44:
 594:Generated_Source\PSoC4/CyLib.c **** 
 595:Generated_Source\PSoC4/CyLib.c **** #if (CY_IP_SRSSLT && CY_IP_PLL)
 596:Generated_Source\PSoC4/CyLib.c ****     if ((CY_SYS_CLK_HFCLK_PLL0 == clkSelect) || (CY_SYS_CLK_HFCLK_ECO == clkSelect))
 597:Generated_Source\PSoC4/CyLib.c ****     {
 598:Generated_Source\PSoC4/CyLib.c ****         tmpReg = CY_SYS_CLK_SELECT_REG & ~CY_SYS_CLK_SELECT_DIRECT_SEL_MASK;
 599:Generated_Source\PSoC4/CyLib.c ****         tmpReg |= CY_SYS_CLK_HFCLK_IMO;
 600:Generated_Source\PSoC4/CyLib.c ****         CY_SYS_CLK_SELECT_REG = tmpReg;
 601:Generated_Source\PSoC4/CyLib.c **** 
 602:Generated_Source\PSoC4/CyLib.c ****         /* SRSSLT block does not have registers to select PLL. It is part of EXCO */
 603:Generated_Source\PSoC4/CyLib.c ****         tmpReg = CY_SYS_ECO_CLK_SELECT_REG & ~CY_SYS_ECO_CLK_SELECT_ECO_PLL_MASK;
 604:Generated_Source\PSoC4/CyLib.c ****         tmpReg |= ((clkSelect & CY_SYS_CLK_SELECT_HFCLK_SEL_PLL_MASK) >> CY_SYS_CLK_SELECT_HFCLK_PL
 605:Generated_Source\PSoC4/CyLib.c ****         CY_SYS_ECO_CLK_SELECT_REG = tmpReg;
 606:Generated_Source\PSoC4/CyLib.c **** 
 607:Generated_Source\PSoC4/CyLib.c ****         /* Check if ECO is enabled and running */
 608:Generated_Source\PSoC4/CyLib.c ****         if ((0UL == (CY_SYS_CLK_ECO_CONFIG_REG & CY_SYS_CLK_ECO_CONFIG_ENABLE)) ||
 609:Generated_Source\PSoC4/CyLib.c ****             (0UL != (CY_SYS_CLK_ECO_STATUS_REG & CY_SYS_CLK_ECO_STATUS_WATCHDOG_ERROR)))
 610:Generated_Source\PSoC4/CyLib.c ****         {
 611:Generated_Source\PSoC4/CyLib.c ****             /* Generate clock sequence to change clock source in CY_SYS_ECO_CLK_SELECT_REG */
 612:Generated_Source\PSoC4/CyLib.c ****             CY_SYS_EXCO_PGM_CLK_REG |= CY_SYS_EXCO_PGM_CLK_ENABLE_MASK;
 613:Generated_Source\PSoC4/CyLib.c **** 
 614:Generated_Source\PSoC4/CyLib.c ****             for(i = 0u; i < CY_SYS_EXCO_PGM_CLK_SEQ_GENERATOR; i++)
 615:Generated_Source\PSoC4/CyLib.c ****             {
 616:Generated_Source\PSoC4/CyLib.c ****                 CY_SYS_EXCO_PGM_CLK_REG |= CY_SYS_EXCO_PGM_CLK_CLK_ECO_MASK;
 617:Generated_Source\PSoC4/CyLib.c ****                 CY_SYS_EXCO_PGM_CLK_REG &= ~CY_SYS_EXCO_PGM_CLK_CLK_ECO_MASK;
 618:Generated_Source\PSoC4/CyLib.c ****             }
 619:Generated_Source\PSoC4/CyLib.c **** 
 620:Generated_Source\PSoC4/CyLib.c ****             CY_SYS_EXCO_PGM_CLK_REG &= ~CY_SYS_EXCO_PGM_CLK_ENABLE_MASK;
 621:Generated_Source\PSoC4/CyLib.c ****         }
 622:Generated_Source\PSoC4/CyLib.c ****     }
 623:Generated_Source\PSoC4/CyLib.c **** #endif /* (CY_IP_SRSSLT && CY_IP_PLL) */
 624:Generated_Source\PSoC4/CyLib.c **** 
 625:Generated_Source\PSoC4/CyLib.c ****     tmpReg = CY_SYS_CLK_SELECT_REG & ~(CY_SYS_CLK_SELECT_DIRECT_SEL_MASK |
 609              		.loc 1 625 0
 610 0008 0C4B     		ldr	r3, .L54
 611 000a 1A68     		ldr	r2, [r3]
 612 000c 0C4B     		ldr	r3, .L54+4
 613 000e 1340     		ands	r3, r2
 614              	.LVL45:
 626:Generated_Source\PSoC4/CyLib.c ****                                        CY_SYS_CLK_SELECT_HFCLK_SEL_MASK);
 627:Generated_Source\PSoC4/CyLib.c **** 
 628:Generated_Source\PSoC4/CyLib.c **** #if (CY_IP_SRSSV2 && CY_IP_PLL)
 629:Generated_Source\PSoC4/CyLib.c ****     if ((CY_SYS_CLK_HFCLK_PLL0 == clkSelect) || (CY_SYS_CLK_HFCLK_PLL1 == clkSelect))
 615              		.loc 1 629 0
 616 0010 8022     		movs	r2, #128
 617 0012 9202     		lsls	r2, r2, #10
 618 0014 9442     		cmp	r4, r2
 619 0016 03D0     		beq	.L51
 620              		.loc 1 629 0 is_stmt 0 discriminator 1
 621 0018 8022     		movs	r2, #128
 622 001a 5202     		lsls	r2, r2, #9
 623 001c 9442     		cmp	r4, r2
 624 001e 04D1     		bne	.L52
 625              	.L51:
 630:Generated_Source\PSoC4/CyLib.c ****     {
 631:Generated_Source\PSoC4/CyLib.c ****         tmpReg |= (clkSelect & CY_SYS_CLK_SELECT_HFCLK_SEL_MASK);
ARM GAS  C:\Users\rolf\AppData\Local\Temp\ccET1jSp.s 			page 24


 626              		.loc 1 631 0 is_stmt 1
 627 0020 C022     		movs	r2, #192
 628 0022 9202     		lsls	r2, r2, #10
 629 0024 1440     		ands	r4, r2
 630              	.LVL46:
 631 0026 2343     		orrs	r3, r4
 632              	.LVL47:
 633 0028 02E0     		b	.L53
 634              	.LVL48:
 635              	.L52:
 632:Generated_Source\PSoC4/CyLib.c ****     }
 633:Generated_Source\PSoC4/CyLib.c ****     else
 634:Generated_Source\PSoC4/CyLib.c **** #endif /* (CY_IP_SRSSV2 && CY_IP_PLL) */
 635:Generated_Source\PSoC4/CyLib.c ****     {
 636:Generated_Source\PSoC4/CyLib.c ****         tmpReg |= (clkSelect & CY_SYS_CLK_SELECT_DIRECT_SEL_MASK);
 636              		.loc 1 636 0
 637 002a 0722     		movs	r2, #7
 638 002c 1440     		ands	r4, r2
 639              	.LVL49:
 640 002e 2343     		orrs	r3, r4
 641              	.LVL50:
 642              	.L53:
 637:Generated_Source\PSoC4/CyLib.c ****     }
 638:Generated_Source\PSoC4/CyLib.c **** 
 639:Generated_Source\PSoC4/CyLib.c ****     CY_SYS_CLK_SELECT_REG = tmpReg;
 643              		.loc 1 639 0
 644 0030 024A     		ldr	r2, .L54
 645 0032 1360     		str	r3, [r2]
 640:Generated_Source\PSoC4/CyLib.c **** 
 641:Generated_Source\PSoC4/CyLib.c ****     CyExitCriticalSection(interruptState);
 646              		.loc 1 641 0
 647 0034 FFF7FEFF 		bl	CyExitCriticalSection
 648              	.LVL51:
 642:Generated_Source\PSoC4/CyLib.c **** }
 649              		.loc 1 642 0
 650              		@ sp needed
 651 0038 10BD     		pop	{r4, pc}
 652              	.L55:
 653 003a C046     		.align	2
 654              	.L54:
 655 003c 00010B40 		.word	1074462976
 656 0040 F8FFFCFF 		.word	-196616
 657              		.cfi_endproc
 658              	.LFE11:
 659              		.size	CySysClkWriteHfclkDirect, .-CySysClkWriteHfclkDirect
 660              		.section	.text.CySysEnablePumpClock,"ax",%progbits
 661              		.align	2
 662              		.global	CySysEnablePumpClock
 663              		.code	16
 664              		.thumb_func
 665              		.type	CySysEnablePumpClock, %function
 666              	CySysEnablePumpClock:
 667              	.LFB12:
 643:Generated_Source\PSoC4/CyLib.c **** 
 644:Generated_Source\PSoC4/CyLib.c **** 
 645:Generated_Source\PSoC4/CyLib.c **** /*******************************************************************************
 646:Generated_Source\PSoC4/CyLib.c **** * Function Name: CySysEnablePumpClock
ARM GAS  C:\Users\rolf\AppData\Local\Temp\ccET1jSp.s 			page 25


 647:Generated_Source\PSoC4/CyLib.c **** ****************************************************************************//**
 648:Generated_Source\PSoC4/CyLib.c **** *
 649:Generated_Source\PSoC4/CyLib.c **** * Enables / disables the pump clock.
 650:Generated_Source\PSoC4/CyLib.c **** *
 651:Generated_Source\PSoC4/CyLib.c **** * \param enable
 652:Generated_Source\PSoC4/CyLib.c **** * CY_SYS_CLK_PUMP_DISABLE - Disables the pump clock
 653:Generated_Source\PSoC4/CyLib.c **** * CY_SYS_CLK_PUMP_ENABLE - Enables and restores the operating source of
 654:Generated_Source\PSoC4/CyLib.c **** * the pump clock.
 655:Generated_Source\PSoC4/CyLib.c **** *
 656:Generated_Source\PSoC4/CyLib.c **** * \sideeffect
 657:Generated_Source\PSoC4/CyLib.c **** *  Enabling/disabling the pump clock does not guarantee glitch free operation
 658:Generated_Source\PSoC4/CyLib.c **** *  when changing the IMO parameters or clock divider settings.
 659:Generated_Source\PSoC4/CyLib.c **** *
 660:Generated_Source\PSoC4/CyLib.c **** *******************************************************************************/
 661:Generated_Source\PSoC4/CyLib.c **** void CySysEnablePumpClock(uint32 enable)
 662:Generated_Source\PSoC4/CyLib.c **** {
 668              		.loc 1 662 0
 669              		.cfi_startproc
 670              		@ args = 0, pretend = 0, frame = 0
 671              		@ frame_needed = 0, uses_anonymous_args = 0
 672              		@ link register save eliminated.
 673              	.LVL52:
 663:Generated_Source\PSoC4/CyLib.c ****     #if(CY_IP_SRSSV2)
 664:Generated_Source\PSoC4/CyLib.c ****         if (0u != (CY_SYS_CLK_PUMP_ENABLE & enable))
 674              		.loc 1 664 0
 675 0000 C307     		lsls	r3, r0, #31
 676 0002 07D5     		bpl	.L57
 665:Generated_Source\PSoC4/CyLib.c ****         {
 666:Generated_Source\PSoC4/CyLib.c ****             CY_SYS_CLK_IMO_CONFIG_REG |= (CySysClkPumpConfig << CY_SYS_CLK_IMO_CONFIG_PUMP_SEL_SHIF
 677              		.loc 1 666 0
 678 0004 094A     		ldr	r2, .L59
 679 0006 1168     		ldr	r1, [r2]
 680 0008 094B     		ldr	r3, .L59+4
 681 000a 1B68     		ldr	r3, [r3]
 682 000c 5B06     		lsls	r3, r3, #25
 683 000e 0B43     		orrs	r3, r1
 684 0010 1360     		str	r3, [r2]
 685 0012 0AE0     		b	.L56
 686              	.L57:
 667:Generated_Source\PSoC4/CyLib.c ****         }
 668:Generated_Source\PSoC4/CyLib.c ****         else
 669:Generated_Source\PSoC4/CyLib.c ****         {
 670:Generated_Source\PSoC4/CyLib.c ****             CySysClkPumpConfig = (CY_SYS_CLK_IMO_CONFIG_REG >> CY_SYS_CLK_IMO_CONFIG_PUMP_SEL_SHIFT
 687              		.loc 1 670 0
 688 0014 054A     		ldr	r2, .L59
 689 0016 1368     		ldr	r3, [r2]
 690 0018 5B0E     		lsrs	r3, r3, #25
 691 001a 0721     		movs	r1, #7
 692 001c 0B40     		ands	r3, r1
 693 001e 0449     		ldr	r1, .L59+4
 694 0020 0B60     		str	r3, [r1]
 671:Generated_Source\PSoC4/CyLib.c ****                                   CY_SYS_CLK_IMO_CONFIG_PUMP_SEL_MASK;
 672:Generated_Source\PSoC4/CyLib.c ****             CY_SYS_CLK_IMO_CONFIG_REG &= ~(CY_SYS_CLK_IMO_CONFIG_PUMP_SEL_MASK << CY_SYS_CLK_IMO_CO
 695              		.loc 1 672 0
 696 0022 1168     		ldr	r1, [r2]
 697 0024 034B     		ldr	r3, .L59+8
 698 0026 0B40     		ands	r3, r1
ARM GAS  C:\Users\rolf\AppData\Local\Temp\ccET1jSp.s 			page 26


 699 0028 1360     		str	r3, [r2]
 700              	.L56:
 673:Generated_Source\PSoC4/CyLib.c ****         }
 674:Generated_Source\PSoC4/CyLib.c ****     #else /* CY_IP_SRSSLT */
 675:Generated_Source\PSoC4/CyLib.c ****         if (0u != (CY_SYS_CLK_PUMP_ENABLE & enable))
 676:Generated_Source\PSoC4/CyLib.c ****         {
 677:Generated_Source\PSoC4/CyLib.c ****             CY_SYS_CLK_SELECT_REG |= (CySysClkPumpConfig << CY_SYS_CLK_SELECT_PUMP_SEL_SHIFT);
 678:Generated_Source\PSoC4/CyLib.c ****         }
 679:Generated_Source\PSoC4/CyLib.c ****         else
 680:Generated_Source\PSoC4/CyLib.c ****         {
 681:Generated_Source\PSoC4/CyLib.c ****             CySysClkPumpConfig = (CY_SYS_CLK_SELECT_REG >> CY_SYS_CLK_SELECT_PUMP_SEL_SHIFT) &
 682:Generated_Source\PSoC4/CyLib.c ****                                   CY_SYS_CLK_SELECT_PUMP_SEL_MASK;
 683:Generated_Source\PSoC4/CyLib.c ****             CY_SYS_CLK_SELECT_REG &= ~(CY_SYS_CLK_SELECT_PUMP_SEL_MASK << CY_SYS_CLK_SELECT_PUMP_SE
 684:Generated_Source\PSoC4/CyLib.c ****         }
 685:Generated_Source\PSoC4/CyLib.c ****     #endif  /* (CY_IP_SRSSV2) */
 686:Generated_Source\PSoC4/CyLib.c **** }
 701              		.loc 1 686 0
 702              		@ sp needed
 703 002a 7047     		bx	lr
 704              	.L60:
 705              		.align	2
 706              	.L59:
 707 002c 08010B40 		.word	1074462984
 708 0030 00000000 		.word	.LANCHOR2
 709 0034 FFFFFFF1 		.word	-234881025
 710              		.cfi_endproc
 711              	.LFE12:
 712              		.size	CySysEnablePumpClock, .-CySysEnablePumpClock
 713              		.section	.text.CySysClkGetSysclkSource,"ax",%progbits
 714              		.align	2
 715              		.global	CySysClkGetSysclkSource
 716              		.code	16
 717              		.thumb_func
 718              		.type	CySysClkGetSysclkSource, %function
 719              	CySysClkGetSysclkSource:
 720              	.LFB13:
 687:Generated_Source\PSoC4/CyLib.c **** 
 688:Generated_Source\PSoC4/CyLib.c **** 
 689:Generated_Source\PSoC4/CyLib.c **** /*******************************************************************************
 690:Generated_Source\PSoC4/CyLib.c **** * Function Name: CySysClkGetSysclkSource
 691:Generated_Source\PSoC4/CyLib.c **** ****************************************************************************//**
 692:Generated_Source\PSoC4/CyLib.c **** *
 693:Generated_Source\PSoC4/CyLib.c **** * Returns the source of the System clock.
 694:Generated_Source\PSoC4/CyLib.c **** *
 695:Generated_Source\PSoC4/CyLib.c **** * \return The same as \ref CySysClkWriteHfclkDirect() function parameters.
 696:Generated_Source\PSoC4/CyLib.c **** *
 697:Generated_Source\PSoC4/CyLib.c **** *******************************************************************************/
 698:Generated_Source\PSoC4/CyLib.c **** uint32 CySysClkGetSysclkSource(void)
 699:Generated_Source\PSoC4/CyLib.c **** {
 721              		.loc 1 699 0
 722              		.cfi_startproc
 723              		@ args = 0, pretend = 0, frame = 0
 724              		@ frame_needed = 0, uses_anonymous_args = 0
 725 0000 10B5     		push	{r4, lr}
 726              		.cfi_def_cfa_offset 8
 727              		.cfi_offset 4, -8
 728              		.cfi_offset 14, -4
ARM GAS  C:\Users\rolf\AppData\Local\Temp\ccET1jSp.s 			page 27


 700:Generated_Source\PSoC4/CyLib.c ****     uint8  interruptState;
 701:Generated_Source\PSoC4/CyLib.c ****     uint32 sysclkSource;
 702:Generated_Source\PSoC4/CyLib.c **** 
 703:Generated_Source\PSoC4/CyLib.c ****     interruptState = CyEnterCriticalSection();
 729              		.loc 1 703 0
 730 0002 FFF7FEFF 		bl	CyEnterCriticalSection
 731              	.LVL53:
 704:Generated_Source\PSoC4/CyLib.c **** 
 705:Generated_Source\PSoC4/CyLib.c **** #if (CY_IP_SRSSV2 && CY_IP_PLL)
 706:Generated_Source\PSoC4/CyLib.c ****     if ((CY_SYS_CLK_SELECT_REG & CY_SYS_CLK_SELECT_HFCLK_SEL_MASK) != 0u)
 732              		.loc 1 706 0
 733 0006 0A4B     		ldr	r3, .L64
 734 0008 1A68     		ldr	r2, [r3]
 735 000a C023     		movs	r3, #192
 736 000c 9B02     		lsls	r3, r3, #10
 737 000e 1A42     		tst	r2, r3
 738 0010 05D0     		beq	.L62
 707:Generated_Source\PSoC4/CyLib.c ****     {
 708:Generated_Source\PSoC4/CyLib.c ****         sysclkSource = (CY_SYS_CLK_SELECT_REG & CY_SYS_CLK_SELECT_HFCLK_SEL_MASK);
 739              		.loc 1 708 0
 740 0012 074B     		ldr	r3, .L64
 741 0014 1C68     		ldr	r4, [r3]
 742 0016 C023     		movs	r3, #192
 743 0018 9B02     		lsls	r3, r3, #10
 744 001a 1C40     		ands	r4, r3
 745              	.LVL54:
 746 001c 03E0     		b	.L63
 747              	.LVL55:
 748              	.L62:
 709:Generated_Source\PSoC4/CyLib.c ****     }
 710:Generated_Source\PSoC4/CyLib.c ****     else
 711:Generated_Source\PSoC4/CyLib.c **** #endif /* (CY_IP_SRSSV2 && CY_IP_PLL) */
 712:Generated_Source\PSoC4/CyLib.c ****     {
 713:Generated_Source\PSoC4/CyLib.c ****         sysclkSource = (CY_SYS_CLK_SELECT_REG & CY_SYS_CLK_SELECT_DIRECT_SEL_MASK);
 749              		.loc 1 713 0
 750 001e 044B     		ldr	r3, .L64
 751 0020 1B68     		ldr	r3, [r3]
 752 0022 0724     		movs	r4, #7
 753 0024 1C40     		ands	r4, r3
 754              	.LVL56:
 755              	.L63:
 714:Generated_Source\PSoC4/CyLib.c **** 
 715:Generated_Source\PSoC4/CyLib.c ****     #if (CY_IP_SRSSLT && CY_IP_PLL)
 716:Generated_Source\PSoC4/CyLib.c ****         sysclkSource |= (((uint32)(CY_SYS_ECO_CLK_SELECT_REG & CY_SYS_ECO_CLK_SELECT_ECO_PLL_MASK))
 717:Generated_Source\PSoC4/CyLib.c ****                          CY_SYS_CLK_SELECT_HFCLK_PLL_SHIFT);
 718:Generated_Source\PSoC4/CyLib.c ****     #endif /* (CY_IP_SRSSLT && CY_IP_PLL) */
 719:Generated_Source\PSoC4/CyLib.c **** 
 720:Generated_Source\PSoC4/CyLib.c ****     }
 721:Generated_Source\PSoC4/CyLib.c **** 
 722:Generated_Source\PSoC4/CyLib.c ****     CyExitCriticalSection(interruptState);
 756              		.loc 1 722 0
 757 0026 FFF7FEFF 		bl	CyExitCriticalSection
 758              	.LVL57:
 723:Generated_Source\PSoC4/CyLib.c **** 
 724:Generated_Source\PSoC4/CyLib.c ****     return (sysclkSource);
 725:Generated_Source\PSoC4/CyLib.c **** }
 759              		.loc 1 725 0
ARM GAS  C:\Users\rolf\AppData\Local\Temp\ccET1jSp.s 			page 28


 760 002a 2000     		movs	r0, r4
 761              		@ sp needed
 762              	.LVL58:
 763 002c 10BD     		pop	{r4, pc}
 764              	.L65:
 765 002e C046     		.align	2
 766              	.L64:
 767 0030 00010B40 		.word	1074462976
 768              		.cfi_endproc
 769              	.LFE13:
 770              		.size	CySysClkGetSysclkSource, .-CySysClkGetSysclkSource
 771              		.section	.text.CySysClkWriteSysclkDiv,"ax",%progbits
 772              		.align	2
 773              		.global	CySysClkWriteSysclkDiv
 774              		.code	16
 775              		.thumb_func
 776              		.type	CySysClkWriteSysclkDiv, %function
 777              	CySysClkWriteSysclkDiv:
 778              	.LFB14:
 726:Generated_Source\PSoC4/CyLib.c **** 
 727:Generated_Source\PSoC4/CyLib.c **** 
 728:Generated_Source\PSoC4/CyLib.c **** /*******************************************************************************
 729:Generated_Source\PSoC4/CyLib.c **** * Function Name: CySysClkWriteSysclkDiv
 730:Generated_Source\PSoC4/CyLib.c **** ****************************************************************************//**
 731:Generated_Source\PSoC4/CyLib.c **** *
 732:Generated_Source\PSoC4/CyLib.c **** * Selects the prescaler divide amount for SYSCLK from HFCLK.
 733:Generated_Source\PSoC4/CyLib.c **** *
 734:Generated_Source\PSoC4/CyLib.c **** * PSoC 4000: The SYSCLK has the speed of 16 MHz, so HFCLK and SYSCLK dividers
 735:Generated_Source\PSoC4/CyLib.c **** * should be selected in a way, not to exceed 16 MHz for SYSCLK.
 736:Generated_Source\PSoC4/CyLib.c **** *
 737:Generated_Source\PSoC4/CyLib.c **** * PSoC 4100 \ PSoC 4100 BLE \ PSoC 4100M: The SYSCLK has the speed of 24 MHz,
 738:Generated_Source\PSoC4/CyLib.c **** * so HFCLK and SYSCLK dividers should be selected in a way, not to exceed 24 MHz
 739:Generated_Source\PSoC4/CyLib.c **** * for SYSCLK.
 740:Generated_Source\PSoC4/CyLib.c **** *
 741:Generated_Source\PSoC4/CyLib.c **** * If the SYSCLK clock frequency increases during the device operation, call
 742:Generated_Source\PSoC4/CyLib.c **** * \ref CySysFlashSetWaitCycles() with the appropriate parameter to adjust the
 743:Generated_Source\PSoC4/CyLib.c **** * number of clock cycles the cache will wait before sampling data comes back
 744:Generated_Source\PSoC4/CyLib.c **** * from Flash. If the SYSCLK clock frequency decreases, you can call
 745:Generated_Source\PSoC4/CyLib.c **** * \ref CySysFlashSetWaitCycles() to improve the CPU performance. See
 746:Generated_Source\PSoC4/CyLib.c **** * \ref CySysFlashSetWaitCycles() description for more information.
 747:Generated_Source\PSoC4/CyLib.c **** *
 748:Generated_Source\PSoC4/CyLib.c **** * \param divider Power of 2 prescaler selection
 749:Generated_Source\PSoC4/CyLib.c **** *  CY_SYS_CLK_SYSCLK_DIV1        SYSCLK = HFCLK / 1
 750:Generated_Source\PSoC4/CyLib.c **** *  CY_SYS_CLK_SYSCLK_DIV2        SYSCLK = HFCLK / 2
 751:Generated_Source\PSoC4/CyLib.c **** *  CY_SYS_CLK_SYSCLK_DIV4        SYSCLK = HFCLK / 4
 752:Generated_Source\PSoC4/CyLib.c **** *  CY_SYS_CLK_SYSCLK_DIV8        SYSCLK = HFCLK / 8
 753:Generated_Source\PSoC4/CyLib.c **** *  CY_SYS_CLK_SYSCLK_DIV16       SYSCLK = HFCLK / 16  (N/A for 4000 Family)
 754:Generated_Source\PSoC4/CyLib.c **** *  CY_SYS_CLK_SYSCLK_DIV32       SYSCLK = HFCLK / 32  (N/A for 4000 Family)
 755:Generated_Source\PSoC4/CyLib.c **** *  CY_SYS_CLK_SYSCLK_DIV64       SYSCLK = HFCLK / 64  (N/A for 4000 Family)
 756:Generated_Source\PSoC4/CyLib.c **** *  CY_SYS_CLK_SYSCLK_DIV128      SYSCLK = HFCLK / 128 (N/A for 4000 Family)
 757:Generated_Source\PSoC4/CyLib.c **** *
 758:Generated_Source\PSoC4/CyLib.c **** *******************************************************************************/
 759:Generated_Source\PSoC4/CyLib.c **** void CySysClkWriteSysclkDiv(uint32 divider)
 760:Generated_Source\PSoC4/CyLib.c **** {
 779              		.loc 1 760 0
 780              		.cfi_startproc
 781              		@ args = 0, pretend = 0, frame = 0
ARM GAS  C:\Users\rolf\AppData\Local\Temp\ccET1jSp.s 			page 29


 782              		@ frame_needed = 0, uses_anonymous_args = 0
 783              	.LVL59:
 784 0000 10B5     		push	{r4, lr}
 785              		.cfi_def_cfa_offset 8
 786              		.cfi_offset 4, -8
 787              		.cfi_offset 14, -4
 788 0002 0400     		movs	r4, r0
 761:Generated_Source\PSoC4/CyLib.c ****     uint8  interruptState;
 762:Generated_Source\PSoC4/CyLib.c **** 
 763:Generated_Source\PSoC4/CyLib.c ****     interruptState = CyEnterCriticalSection();
 789              		.loc 1 763 0
 790 0004 FFF7FEFF 		bl	CyEnterCriticalSection
 791              	.LVL60:
 764:Generated_Source\PSoC4/CyLib.c **** 
 765:Generated_Source\PSoC4/CyLib.c ****     CY_SYS_CLK_SELECT_REG = ((uint32)(((uint32)divider & CY_SYS_CLK_SELECT_SYSCLK_DIV_MASK) <<
 792              		.loc 1 765 0
 793 0008 E304     		lsls	r3, r4, #19
 794 000a E022     		movs	r2, #224
 795 000c 9203     		lsls	r2, r2, #14
 796 000e 1340     		ands	r3, r2
 797 0010 1900     		movs	r1, r3
 766:Generated_Source\PSoC4/CyLib.c ****                                     CY_SYS_CLK_SELECT_SYSCLK_DIV_SHIFT)) |
 767:Generated_Source\PSoC4/CyLib.c ****                             (CY_SYS_CLK_SELECT_REG & ((uint32)(~(uint32)(CY_SYS_CLK_SELECT_SYSCLK_D
 798              		.loc 1 767 0
 799 0012 054C     		ldr	r4, .L67
 800              	.LVL61:
 801 0014 2368     		ldr	r3, [r4]
 802 0016 054A     		ldr	r2, .L67+4
 803 0018 1A40     		ands	r2, r3
 766:Generated_Source\PSoC4/CyLib.c ****                                     CY_SYS_CLK_SELECT_SYSCLK_DIV_SHIFT)) |
 804              		.loc 1 766 0
 805 001a 0B00     		movs	r3, r1
 806 001c 1343     		orrs	r3, r2
 765:Generated_Source\PSoC4/CyLib.c ****                                     CY_SYS_CLK_SELECT_SYSCLK_DIV_SHIFT)) |
 807              		.loc 1 765 0
 808 001e 2360     		str	r3, [r4]
 768:Generated_Source\PSoC4/CyLib.c ****                                     CY_SYS_CLK_SELECT_SYSCLK_DIV_SHIFT))));
 769:Generated_Source\PSoC4/CyLib.c **** 
 770:Generated_Source\PSoC4/CyLib.c ****     CyExitCriticalSection(interruptState);
 809              		.loc 1 770 0
 810 0020 FFF7FEFF 		bl	CyExitCriticalSection
 811              	.LVL62:
 771:Generated_Source\PSoC4/CyLib.c **** }
 812              		.loc 1 771 0
 813              		@ sp needed
 814 0024 10BD     		pop	{r4, pc}
 815              	.L68:
 816 0026 C046     		.align	2
 817              	.L67:
 818 0028 00010B40 		.word	1074462976
 819 002c FFFFC7FF 		.word	-3670017
 820              		.cfi_endproc
 821              	.LFE14:
 822              		.size	CySysClkWriteSysclkDiv, .-CySysClkWriteSysclkDiv
 823              		.section	.text.CySysClkEcoStop,"ax",%progbits
 824              		.align	2
 825              		.global	CySysClkEcoStop
ARM GAS  C:\Users\rolf\AppData\Local\Temp\ccET1jSp.s 			page 30


 826              		.code	16
 827              		.thumb_func
 828              		.type	CySysClkEcoStop, %function
 829              	CySysClkEcoStop:
 830              	.LFB17:
 772:Generated_Source\PSoC4/CyLib.c **** 
 773:Generated_Source\PSoC4/CyLib.c **** 
 774:Generated_Source\PSoC4/CyLib.c **** /*******************************************************************************
 775:Generated_Source\PSoC4/CyLib.c **** * Function Name: CySysClkWriteImoFreq
 776:Generated_Source\PSoC4/CyLib.c **** ****************************************************************************//**
 777:Generated_Source\PSoC4/CyLib.c **** *
 778:Generated_Source\PSoC4/CyLib.c **** * Sets the frequency of the IMO.
 779:Generated_Source\PSoC4/CyLib.c **** *
 780:Generated_Source\PSoC4/CyLib.c **** * PSoC 4000: The SYSCLK has the speed of 16 MHz, so HFCLK and SYSCLK dividers
 781:Generated_Source\PSoC4/CyLib.c **** * should be selected in a way, not to exceed 16 MHz for SYSCLK.
 782:Generated_Source\PSoC4/CyLib.c **** *
 783:Generated_Source\PSoC4/CyLib.c **** * PSoC 4100 \ PSoC 4100 BLE \ PSoC 4100M: The SYSCLK has the speed of 24 MHz,
 784:Generated_Source\PSoC4/CyLib.c **** * so HFCLK and SYSCLK dividers should be selected in a way, not to exceed 24 MHz
 785:Generated_Source\PSoC4/CyLib.c **** * for SYSCLK.
 786:Generated_Source\PSoC4/CyLib.c **** *
 787:Generated_Source\PSoC4/CyLib.c **** * For PSoC 4200M and PSoC 4200L device families, if WCO lock feature is enabled
 788:Generated_Source\PSoC4/CyLib.c **** * then this API will disable the lock, write the new IMO frequency and then
 789:Generated_Source\PSoC4/CyLib.c **** * re-enable the lock.
 790:Generated_Source\PSoC4/CyLib.c **** *
 791:Generated_Source\PSoC4/CyLib.c **** * For PSoC 4200L device families, this function enables the USB lock when 24 or
 792:Generated_Source\PSoC4/CyLib.c **** * 48 MHz passed as a parameter if the USB lock option is enabled in Design Wide
 793:Generated_Source\PSoC4/CyLib.c **** * Resources tab or CySysClkImoEnableUsbLock() was called before. Note the USB
 794:Generated_Source\PSoC4/CyLib.c **** * lock is disabled during IMO frequency change.
 795:Generated_Source\PSoC4/CyLib.c **** *
 796:Generated_Source\PSoC4/CyLib.c **** * The CPU is halted if new frequency is invalid and project is compiled
 797:Generated_Source\PSoC4/CyLib.c **** * in debug mode.
 798:Generated_Source\PSoC4/CyLib.c **** *
 799:Generated_Source\PSoC4/CyLib.c **** * If the SYSCLK clock frequency increases during the device operation, call
 800:Generated_Source\PSoC4/CyLib.c **** * \ref CySysFlashSetWaitCycles() with the appropriate parameter to adjust the
 801:Generated_Source\PSoC4/CyLib.c **** * number of clock cycles the cache will wait before sampling data comes back
 802:Generated_Source\PSoC4/CyLib.c **** * from Flash. If the SYSCLK clock frequency decreases, you can call
 803:Generated_Source\PSoC4/CyLib.c **** * \ref CySysFlashSetWaitCycles() to improve the CPU performance. See
 804:Generated_Source\PSoC4/CyLib.c **** * \ref CySysFlashSetWaitCycles() description for more information.
 805:Generated_Source\PSoC4/CyLib.c **** *
 806:Generated_Source\PSoC4/CyLib.c **** * PSoC 4000: The System Clock (SYSCLK) has maximum speed of 16 MHz, so HFCLK
 807:Generated_Source\PSoC4/CyLib.c **** * and SYSCLK dividers should be selected in a way, to not to exceed 16 MHz for
 808:Generated_Source\PSoC4/CyLib.c **** * the System clock.
 809:Generated_Source\PSoC4/CyLib.c **** *
 810:Generated_Source\PSoC4/CyLib.c **** * \param freq All PSoC 4 families excluding the following: Valid range [3-48]
 811:Generated_Source\PSoC4/CyLib.c **** * with step size equals 1. PSoC 4000: Valid values are 24, 32, and 48.
 812:Generated_Source\PSoC4/CyLib.c **** * PSoC 4000S / PSoC 4100S / PSoC Analog Coprocessor: Valid range [24-48] with
 813:Generated_Source\PSoC4/CyLib.c **** * step size equals 4.
 814:Generated_Source\PSoC4/CyLib.c **** *
 815:Generated_Source\PSoC4/CyLib.c **** *******************************************************************************/
 816:Generated_Source\PSoC4/CyLib.c **** #if(CY_IP_SRSSV2)
 817:Generated_Source\PSoC4/CyLib.c ****     void CySysClkWriteImoFreq(uint32 freq)
 818:Generated_Source\PSoC4/CyLib.c ****     {
 819:Generated_Source\PSoC4/CyLib.c ****         #if (CY_IP_FMLT)
 820:Generated_Source\PSoC4/CyLib.c ****             volatile uint32   parameters[2u];
 821:Generated_Source\PSoC4/CyLib.c ****             volatile uint32   regValues[4u];
 822:Generated_Source\PSoC4/CyLib.c ****         #else
 823:Generated_Source\PSoC4/CyLib.c ****             uint8  bgTrim4;
ARM GAS  C:\Users\rolf\AppData\Local\Temp\ccET1jSp.s 			page 31


 824:Generated_Source\PSoC4/CyLib.c ****             uint8  bgTrim5;
 825:Generated_Source\PSoC4/CyLib.c ****             uint8  newImoTrim2Value;
 826:Generated_Source\PSoC4/CyLib.c ****             uint8  currentImoTrim2Value;
 827:Generated_Source\PSoC4/CyLib.c ****         #endif /* (CY_IP_FM) */
 828:Generated_Source\PSoC4/CyLib.c **** 
 829:Generated_Source\PSoC4/CyLib.c ****         #if (CY_IP_IMO_TRIMMABLE_BY_WCO)
 830:Generated_Source\PSoC4/CyLib.c ****             uint32 wcoLock = 0u;
 831:Generated_Source\PSoC4/CyLib.c ****         #endif  /* (CY_IP_IMO_TRIMMABLE_BY_WCO) */
 832:Generated_Source\PSoC4/CyLib.c **** 
 833:Generated_Source\PSoC4/CyLib.c ****         #if (CY_IP_IMO_TRIMMABLE_BY_USB)
 834:Generated_Source\PSoC4/CyLib.c ****             uint32 usbLock = 0u;
 835:Generated_Source\PSoC4/CyLib.c ****         #endif  /* (CY_IP_IMO_TRIMMABLE_BY_USB) */
 836:Generated_Source\PSoC4/CyLib.c **** 
 837:Generated_Source\PSoC4/CyLib.c ****         uint8  interruptState;
 838:Generated_Source\PSoC4/CyLib.c **** 
 839:Generated_Source\PSoC4/CyLib.c **** 
 840:Generated_Source\PSoC4/CyLib.c ****         interruptState = CyEnterCriticalSection();
 841:Generated_Source\PSoC4/CyLib.c **** 
 842:Generated_Source\PSoC4/CyLib.c ****         #if (CY_IP_IMO_TRIMMABLE_BY_WCO)
 843:Generated_Source\PSoC4/CyLib.c ****             if(0u != CySysClkImoGetWcoLock())
 844:Generated_Source\PSoC4/CyLib.c ****             {
 845:Generated_Source\PSoC4/CyLib.c ****                 wcoLock = 1u;
 846:Generated_Source\PSoC4/CyLib.c ****                 CySysClkImoDisableWcoLock();
 847:Generated_Source\PSoC4/CyLib.c ****             }
 848:Generated_Source\PSoC4/CyLib.c ****         #endif  /* (CY_IP_IMO_TRIMMABLE_BY_WCO) */
 849:Generated_Source\PSoC4/CyLib.c **** 
 850:Generated_Source\PSoC4/CyLib.c **** 
 851:Generated_Source\PSoC4/CyLib.c ****         #if (CY_IP_IMO_TRIMMABLE_BY_USB)
 852:Generated_Source\PSoC4/CyLib.c **** 
 853:Generated_Source\PSoC4/CyLib.c ****             #if (CYDEV_IMO_TRIMMED_BY_USB == 0u)
 854:Generated_Source\PSoC4/CyLib.c ****                 if(0u != CySysClkImoGetUsbLock())
 855:Generated_Source\PSoC4/CyLib.c ****                 {
 856:Generated_Source\PSoC4/CyLib.c ****             #endif  /* (CYDEV_IMO_TRIMMED_BY_USB == 0u) */
 857:Generated_Source\PSoC4/CyLib.c **** 
 858:Generated_Source\PSoC4/CyLib.c ****                 if ((24u == freq) || (48u == freq))
 859:Generated_Source\PSoC4/CyLib.c ****                 {
 860:Generated_Source\PSoC4/CyLib.c ****                     usbLock = 1u;
 861:Generated_Source\PSoC4/CyLib.c ****                     CySysClkImoDisableUsbLock();
 862:Generated_Source\PSoC4/CyLib.c ****                 }
 863:Generated_Source\PSoC4/CyLib.c **** 
 864:Generated_Source\PSoC4/CyLib.c ****             #if (CYDEV_IMO_TRIMMED_BY_USB == 0u)
 865:Generated_Source\PSoC4/CyLib.c ****                 }
 866:Generated_Source\PSoC4/CyLib.c ****             #endif  /* (CYDEV_IMO_TRIMMED_BY_USB == 0u) */
 867:Generated_Source\PSoC4/CyLib.c **** 
 868:Generated_Source\PSoC4/CyLib.c ****         #endif  /* (CYDEV_IMO_TRIMMED_BY_USB == 0u) */
 869:Generated_Source\PSoC4/CyLib.c **** 
 870:Generated_Source\PSoC4/CyLib.c **** 
 871:Generated_Source\PSoC4/CyLib.c ****         #if (CY_IP_FMLT)
 872:Generated_Source\PSoC4/CyLib.c **** 
 873:Generated_Source\PSoC4/CyLib.c ****             /* FM-Lite Clock Restore */
 874:Generated_Source\PSoC4/CyLib.c ****             regValues[0u] = CY_SYS_CLK_IMO_CONFIG_REG;
 875:Generated_Source\PSoC4/CyLib.c ****             regValues[1u] = CY_SYS_CLK_SELECT_REG;
 876:Generated_Source\PSoC4/CyLib.c ****             regValues[2u] = cyImoFreqMhz2Reg[freq - CY_SYS_CLK_IMO_FREQ_TABLE_OFFSET];
 877:Generated_Source\PSoC4/CyLib.c ****             regValues[3u] = CY_FLASH_CTL_REG;
 878:Generated_Source\PSoC4/CyLib.c **** 
 879:Generated_Source\PSoC4/CyLib.c ****             parameters[0u] =
 880:Generated_Source\PSoC4/CyLib.c ****                 (uint32) ((CY_FLASH_KEY_TWO(CY_FLASH_API_OPCODE_CLK_RESTORE) <<  CY_FLASH_PARAM_KEY
ARM GAS  C:\Users\rolf\AppData\Local\Temp\ccET1jSp.s 			page 32


 881:Generated_Source\PSoC4/CyLib.c ****                             CY_FLASH_KEY_ONE);
 882:Generated_Source\PSoC4/CyLib.c ****             parameters[1u] = (uint32) &regValues[0u];
 883:Generated_Source\PSoC4/CyLib.c **** 
 884:Generated_Source\PSoC4/CyLib.c ****             CY_FLASH_CPUSS_SYSARG_REG = (uint32) &parameters[0u];
 885:Generated_Source\PSoC4/CyLib.c ****             CY_FLASH_CPUSS_SYSREQ_REG = CY_FLASH_CPUSS_REQ_START | CY_FLASH_API_OPCODE_CLK_RESTORE;
 886:Generated_Source\PSoC4/CyLib.c ****             (void) CY_FLASH_CPUSS_SYSARG_REG;
 887:Generated_Source\PSoC4/CyLib.c **** 
 888:Generated_Source\PSoC4/CyLib.c ****         #else /* (CY_IP_FM) */
 889:Generated_Source\PSoC4/CyLib.c **** 
 890:Generated_Source\PSoC4/CyLib.c ****         if ((freq >= CY_SYS_CLK_IMO_MIN_FREQ_MHZ) && (freq <= CY_SYS_CLK_IMO_MAX_FREQ_MHZ))
 891:Generated_Source\PSoC4/CyLib.c ****         {
 892:Generated_Source\PSoC4/CyLib.c ****             if(freq <= CY_SFLASH_IMO_MAXF0_REG)
 893:Generated_Source\PSoC4/CyLib.c ****             {
 894:Generated_Source\PSoC4/CyLib.c ****                 bgTrim4 = CY_SFLASH_IMO_ABS0_REG;
 895:Generated_Source\PSoC4/CyLib.c ****                 bgTrim5 = CY_SFLASH_IMO_TMPCO0_REG;
 896:Generated_Source\PSoC4/CyLib.c ****             }
 897:Generated_Source\PSoC4/CyLib.c ****             else if(freq <= CY_SFLASH_IMO_MAXF1_REG)
 898:Generated_Source\PSoC4/CyLib.c ****             {
 899:Generated_Source\PSoC4/CyLib.c ****                 bgTrim4 = CY_SFLASH_IMO_ABS1_REG;
 900:Generated_Source\PSoC4/CyLib.c ****                 bgTrim5 = CY_SFLASH_IMO_TMPCO1_REG;
 901:Generated_Source\PSoC4/CyLib.c ****             }
 902:Generated_Source\PSoC4/CyLib.c ****             else if(freq <= CY_SFLASH_IMO_MAXF2_REG)
 903:Generated_Source\PSoC4/CyLib.c ****             {
 904:Generated_Source\PSoC4/CyLib.c ****                 bgTrim4 = CY_SFLASH_IMO_ABS2_REG;
 905:Generated_Source\PSoC4/CyLib.c ****                 bgTrim5 = CY_SFLASH_IMO_TMPCO2_REG;
 906:Generated_Source\PSoC4/CyLib.c ****             }
 907:Generated_Source\PSoC4/CyLib.c ****             else if(freq <= CY_SFLASH_IMO_MAXF3_REG)
 908:Generated_Source\PSoC4/CyLib.c ****             {
 909:Generated_Source\PSoC4/CyLib.c ****                 bgTrim4 = CY_SFLASH_IMO_ABS3_REG;
 910:Generated_Source\PSoC4/CyLib.c ****                 bgTrim5 = CY_SFLASH_IMO_TMPCO3_REG;
 911:Generated_Source\PSoC4/CyLib.c ****             }
 912:Generated_Source\PSoC4/CyLib.c ****             else
 913:Generated_Source\PSoC4/CyLib.c ****             {
 914:Generated_Source\PSoC4/CyLib.c ****                 bgTrim4 = CY_SFLASH_IMO_ABS4_REG;
 915:Generated_Source\PSoC4/CyLib.c ****                 bgTrim5 = CY_SFLASH_IMO_TMPCO4_REG;
 916:Generated_Source\PSoC4/CyLib.c ****             }
 917:Generated_Source\PSoC4/CyLib.c **** 
 918:Generated_Source\PSoC4/CyLib.c ****             /* Get IMO_TRIM2 value for the new frequency */
 919:Generated_Source\PSoC4/CyLib.c ****             newImoTrim2Value = cyImoFreqMhz2Reg[freq - CY_SYS_CLK_IMO_FREQ_TABLE_OFFSET];
 920:Generated_Source\PSoC4/CyLib.c **** 
 921:Generated_Source\PSoC4/CyLib.c **** 
 922:Generated_Source\PSoC4/CyLib.c ****             /****************************************************************************
 923:Generated_Source\PSoC4/CyLib.c ****             * The IMO can have a different trim per frequency. To avoid possible corner
 924:Generated_Source\PSoC4/CyLib.c ****             * cases where a trim change can exceed the maximum frequency, the trim must
 925:Generated_Source\PSoC4/CyLib.c ****             * be applied at a frequency that is low enough.
 926:Generated_Source\PSoC4/CyLib.c ****             *
 927:Generated_Source\PSoC4/CyLib.c ****             * Comparing IMO_TRIM2 values for the current and new frequencies, since
 928:Generated_Source\PSoC4/CyLib.c ****             * IMO_TRIM2 value as a function of IMO frequency is a strictly increasing
 929:Generated_Source\PSoC4/CyLib.c ****             * function and is time-invariant.
 930:Generated_Source\PSoC4/CyLib.c ****             ***************************************************************************/
 931:Generated_Source\PSoC4/CyLib.c ****             if ((newImoTrim2Value >= CY_SYS_CLK_IMO_BOUNDARY_FREQ_TRIM2) && (freq >= CY_SYS_CLK_IMO
 932:Generated_Source\PSoC4/CyLib.c ****             {
 933:Generated_Source\PSoC4/CyLib.c ****                 /* Set boundary IMO frequency: safe for IMO above 48 MHZ trimming */
 934:Generated_Source\PSoC4/CyLib.c ****                 CY_SYS_CLK_IMO_TRIM2_REG = (uint32) cyImoFreqMhz2Reg[CY_SYS_CLK_IMO_TEMP_FREQ_MHZ -
 935:Generated_Source\PSoC4/CyLib.c ****                                                                      CY_SYS_CLK_IMO_FREQ_TABLE_OFFS
 936:Generated_Source\PSoC4/CyLib.c **** 
 937:Generated_Source\PSoC4/CyLib.c ****                 CyDelayCycles(CY_SYS_CLK_IMO_FREQ_TIMEOUT_CYCLES);
ARM GAS  C:\Users\rolf\AppData\Local\Temp\ccET1jSp.s 			page 33


 938:Generated_Source\PSoC4/CyLib.c **** 
 939:Generated_Source\PSoC4/CyLib.c ****                 currentImoTrim2Value = CY_SYS_CLK_IMO_TEMP_FREQ_TRIM2;
 940:Generated_Source\PSoC4/CyLib.c ****             }
 941:Generated_Source\PSoC4/CyLib.c ****             else
 942:Generated_Source\PSoC4/CyLib.c ****             {
 943:Generated_Source\PSoC4/CyLib.c ****                 currentImoTrim2Value = (uint8) (CY_SYS_CLK_IMO_TRIM2_REG & CY_SYS_CLK_IMO_FREQ_BITS
 944:Generated_Source\PSoC4/CyLib.c ****             }
 945:Generated_Source\PSoC4/CyLib.c **** 
 946:Generated_Source\PSoC4/CyLib.c **** 
 947:Generated_Source\PSoC4/CyLib.c ****             /***************************************************************************
 948:Generated_Source\PSoC4/CyLib.c ****             * A trim change needs to be allowed to settle (within 5us) before the Freq
 949:Generated_Source\PSoC4/CyLib.c ****             * can be changed to a new frequency.
 950:Generated_Source\PSoC4/CyLib.c ****             *
 951:Generated_Source\PSoC4/CyLib.c ****             * Comparing IMO_TRIM2 values for the current and new frequencies, since
 952:Generated_Source\PSoC4/CyLib.c ****             * IMO_TRIM2 value as a function of IMO frequency is a strictly increasing
 953:Generated_Source\PSoC4/CyLib.c ****             * function and is time-invariant.
 954:Generated_Source\PSoC4/CyLib.c ****             ***************************************************************************/
 955:Generated_Source\PSoC4/CyLib.c ****             if (newImoTrim2Value < currentImoTrim2Value)
 956:Generated_Source\PSoC4/CyLib.c ****             {
 957:Generated_Source\PSoC4/CyLib.c ****                 /* Set new IMO frequency */
 958:Generated_Source\PSoC4/CyLib.c ****                 CY_SYS_CLK_IMO_TRIM2_REG = cyImoFreqMhz2Reg[freq - CY_SYS_CLK_IMO_FREQ_TABLE_OFFSET
 959:Generated_Source\PSoC4/CyLib.c ****                 CyDelayCycles(CY_SYS_CLK_IMO_FREQ_TIMEOUT_CYCLES);
 960:Generated_Source\PSoC4/CyLib.c ****             }
 961:Generated_Source\PSoC4/CyLib.c **** 
 962:Generated_Source\PSoC4/CyLib.c ****             /* Set trims for the new IMO frequency */
 963:Generated_Source\PSoC4/CyLib.c ****             CY_SYS_CLK_IMO_TRIM1_REG = (uint32) CY_SFLASH_IMO_TRIM_REG(freq - CY_SYS_CLK_IMO_FREQ_T
 964:Generated_Source\PSoC4/CyLib.c ****             CY_PWR_BG_TRIM4_REG  = bgTrim4;
 965:Generated_Source\PSoC4/CyLib.c ****             CY_PWR_BG_TRIM5_REG  = bgTrim5;
 966:Generated_Source\PSoC4/CyLib.c ****             CyDelayUs(CY_SYS_CLK_IMO_TRIM_TIMEOUT_US);
 967:Generated_Source\PSoC4/CyLib.c **** 
 968:Generated_Source\PSoC4/CyLib.c ****             if (newImoTrim2Value > currentImoTrim2Value)
 969:Generated_Source\PSoC4/CyLib.c ****             {
 970:Generated_Source\PSoC4/CyLib.c ****                 /* Set new IMO frequency */
 971:Generated_Source\PSoC4/CyLib.c ****                 CY_SYS_CLK_IMO_TRIM2_REG = cyImoFreqMhz2Reg[freq - CY_SYS_CLK_IMO_FREQ_TABLE_OFFSET
 972:Generated_Source\PSoC4/CyLib.c ****                 CyDelayCycles(CY_SYS_CLK_IMO_FREQ_TIMEOUT_CYCLES);
 973:Generated_Source\PSoC4/CyLib.c ****             }
 974:Generated_Source\PSoC4/CyLib.c ****         }
 975:Generated_Source\PSoC4/CyLib.c ****         else
 976:Generated_Source\PSoC4/CyLib.c ****         {
 977:Generated_Source\PSoC4/CyLib.c ****             /* Halt CPU in debug mode if new frequency is invalid */
 978:Generated_Source\PSoC4/CyLib.c ****             CYASSERT(0u != 0u);
 979:Generated_Source\PSoC4/CyLib.c ****         }
 980:Generated_Source\PSoC4/CyLib.c **** 
 981:Generated_Source\PSoC4/CyLib.c ****         #endif /* (CY_IP_FMLT) */
 982:Generated_Source\PSoC4/CyLib.c **** 
 983:Generated_Source\PSoC4/CyLib.c ****         #if (CY_IP_IMO_TRIMMABLE_BY_WCO)
 984:Generated_Source\PSoC4/CyLib.c ****             if (1u == wcoLock)
 985:Generated_Source\PSoC4/CyLib.c ****             {
 986:Generated_Source\PSoC4/CyLib.c ****                 CySysClkImoEnableWcoLock();
 987:Generated_Source\PSoC4/CyLib.c ****             }
 988:Generated_Source\PSoC4/CyLib.c ****         #endif  /* (CY_IP_IMO_TRIMMABLE_BY_WCO) */
 989:Generated_Source\PSoC4/CyLib.c **** 
 990:Generated_Source\PSoC4/CyLib.c ****         #if (CY_IP_IMO_TRIMMABLE_BY_USB)
 991:Generated_Source\PSoC4/CyLib.c ****             if (1u == usbLock)
 992:Generated_Source\PSoC4/CyLib.c ****             {
 993:Generated_Source\PSoC4/CyLib.c ****                 CySysClkImoEnableUsbLock();
 994:Generated_Source\PSoC4/CyLib.c ****             }
ARM GAS  C:\Users\rolf\AppData\Local\Temp\ccET1jSp.s 			page 34


 995:Generated_Source\PSoC4/CyLib.c ****         #endif  /* (CY_IP_IMO_TRIMMABLE_BY_USB) */
 996:Generated_Source\PSoC4/CyLib.c **** 
 997:Generated_Source\PSoC4/CyLib.c ****         CyExitCriticalSection(interruptState);
 998:Generated_Source\PSoC4/CyLib.c ****     }
 999:Generated_Source\PSoC4/CyLib.c **** 
1000:Generated_Source\PSoC4/CyLib.c **** #else
1001:Generated_Source\PSoC4/CyLib.c **** 
1002:Generated_Source\PSoC4/CyLib.c ****     void CySysClkWriteImoFreq(uint32 freq)
1003:Generated_Source\PSoC4/CyLib.c ****     {
1004:Generated_Source\PSoC4/CyLib.c ****         uint8  interruptState;
1005:Generated_Source\PSoC4/CyLib.c ****         uint8  imoTrim1Value;
1006:Generated_Source\PSoC4/CyLib.c **** 
1007:Generated_Source\PSoC4/CyLib.c ****         #if (CY_IP_IMO_TRIMMABLE_BY_WCO)
1008:Generated_Source\PSoC4/CyLib.c ****             uint32 wcoLock = 0u;
1009:Generated_Source\PSoC4/CyLib.c ****         #endif  /* (CY_IP_IMO_TRIMMABLE_BY_WCO) */
1010:Generated_Source\PSoC4/CyLib.c **** 
1011:Generated_Source\PSoC4/CyLib.c ****         #if (CY_IP_IMO_TRIMMABLE_BY_USB)
1012:Generated_Source\PSoC4/CyLib.c ****             uint32 usbLock = 0u;
1013:Generated_Source\PSoC4/CyLib.c ****         #endif  /* (CY_IP_IMO_TRIMMABLE_BY_USB) */
1014:Generated_Source\PSoC4/CyLib.c **** 
1015:Generated_Source\PSoC4/CyLib.c ****         #if (CY_PSOC4_4000)
1016:Generated_Source\PSoC4/CyLib.c ****             if ((freq == 24u) || (freq == 32u) || (freq == 48u))
1017:Generated_Source\PSoC4/CyLib.c ****         #elif (CY_CCG3)
1018:Generated_Source\PSoC4/CyLib.c ****             if ((freq == 24u) || (freq == 36u) || (freq == 48u))
1019:Generated_Source\PSoC4/CyLib.c ****         #else
1020:Generated_Source\PSoC4/CyLib.c ****             if ((freq == 24u) || (freq == 28u) || (freq == 32u) ||
1021:Generated_Source\PSoC4/CyLib.c ****                 (freq == 36u) || (freq == 40u) || (freq == 44u) ||
1022:Generated_Source\PSoC4/CyLib.c ****                 (freq == 48u))
1023:Generated_Source\PSoC4/CyLib.c ****         #endif /* (CY_PSOC4_4000) */
1024:Generated_Source\PSoC4/CyLib.c ****         {
1025:Generated_Source\PSoC4/CyLib.c ****             interruptState = CyEnterCriticalSection();
1026:Generated_Source\PSoC4/CyLib.c **** 
1027:Generated_Source\PSoC4/CyLib.c ****             #if (CY_IP_IMO_TRIMMABLE_BY_WCO)
1028:Generated_Source\PSoC4/CyLib.c ****                 if(0u != CySysClkImoGetWcoLock())
1029:Generated_Source\PSoC4/CyLib.c ****                 {
1030:Generated_Source\PSoC4/CyLib.c ****                     wcoLock = 1u;
1031:Generated_Source\PSoC4/CyLib.c ****                     CySysClkImoDisableWcoLock();
1032:Generated_Source\PSoC4/CyLib.c ****                 }
1033:Generated_Source\PSoC4/CyLib.c ****             #endif  /* (CY_IP_IMO_TRIMMABLE_BY_WCO) */
1034:Generated_Source\PSoC4/CyLib.c **** 
1035:Generated_Source\PSoC4/CyLib.c ****             #if (CY_IP_IMO_TRIMMABLE_BY_USB)
1036:Generated_Source\PSoC4/CyLib.c **** 
1037:Generated_Source\PSoC4/CyLib.c ****                 #if (CYDEV_IMO_TRIMMED_BY_USB == 0u)
1038:Generated_Source\PSoC4/CyLib.c ****                     if(0u != CySysClkImoGetUsbLock())
1039:Generated_Source\PSoC4/CyLib.c ****                     {
1040:Generated_Source\PSoC4/CyLib.c ****                 #endif  /* (CYDEV_IMO_TRIMMED_BY_USB == 0u) */
1041:Generated_Source\PSoC4/CyLib.c **** 
1042:Generated_Source\PSoC4/CyLib.c ****                     if (48u == freq)
1043:Generated_Source\PSoC4/CyLib.c ****                     {
1044:Generated_Source\PSoC4/CyLib.c ****                         usbLock = 1u;
1045:Generated_Source\PSoC4/CyLib.c ****                         CySysClkImoDisableUsbLock();
1046:Generated_Source\PSoC4/CyLib.c ****                     }
1047:Generated_Source\PSoC4/CyLib.c **** 
1048:Generated_Source\PSoC4/CyLib.c ****                 #if (CYDEV_IMO_TRIMMED_BY_USB == 0u)
1049:Generated_Source\PSoC4/CyLib.c ****                     }
1050:Generated_Source\PSoC4/CyLib.c ****                 #endif  /* (CYDEV_IMO_TRIMMED_BY_USB == 0u) */
1051:Generated_Source\PSoC4/CyLib.c **** 
ARM GAS  C:\Users\rolf\AppData\Local\Temp\ccET1jSp.s 			page 35


1052:Generated_Source\PSoC4/CyLib.c ****             #endif  /* (CYDEV_IMO_TRIMMED_BY_USB == 0u) */
1053:Generated_Source\PSoC4/CyLib.c **** 
1054:Generated_Source\PSoC4/CyLib.c **** 
1055:Generated_Source\PSoC4/CyLib.c ****             /* Set IMO to 24 MHz - CLK_IMO_SELECT.FREQ = 0 */
1056:Generated_Source\PSoC4/CyLib.c ****             CY_SYS_CLK_IMO_SELECT_REG &= ((uint32) ~CY_SYS_CLK_IMO_SELECT_FREQ_MASK);
1057:Generated_Source\PSoC4/CyLib.c **** 
1058:Generated_Source\PSoC4/CyLib.c **** 
1059:Generated_Source\PSoC4/CyLib.c ****             /* Apply coarse trim */
1060:Generated_Source\PSoC4/CyLib.c ****             #if (CY_IP_IMO_TRIMMABLE_BY_USB)
1061:Generated_Source\PSoC4/CyLib.c ****                 if ((1u == usbLock) && (48u == freq))
1062:Generated_Source\PSoC4/CyLib.c ****                 {
1063:Generated_Source\PSoC4/CyLib.c ****                     imoTrim1Value = CY_SFLASH_IMO_TRIM_USBMODE_48_REG;
1064:Generated_Source\PSoC4/CyLib.c ****                 }
1065:Generated_Source\PSoC4/CyLib.c ****                 else if ((1u == usbLock) && (24u == freq))
1066:Generated_Source\PSoC4/CyLib.c ****                 {
1067:Generated_Source\PSoC4/CyLib.c ****                     imoTrim1Value = CY_SFLASH_IMO_TRIM_USBMODE_24_REG;
1068:Generated_Source\PSoC4/CyLib.c ****                 }
1069:Generated_Source\PSoC4/CyLib.c ****                 else
1070:Generated_Source\PSoC4/CyLib.c ****                 {
1071:Generated_Source\PSoC4/CyLib.c ****                     imoTrim1Value = (uint8) CY_SFLASH_IMO_TRIM_REG(freq - CY_SYS_CLK_IMO_MIN_FREQ_M
1072:Generated_Source\PSoC4/CyLib.c ****                 }
1073:Generated_Source\PSoC4/CyLib.c ****             #else
1074:Generated_Source\PSoC4/CyLib.c ****                 imoTrim1Value = (uint8) CY_SFLASH_IMO_TRIM_REG(freq - CY_SYS_CLK_IMO_MIN_FREQ_MHZ);
1075:Generated_Source\PSoC4/CyLib.c ****             #endif  /* (CY_IP_IMO_TRIMMABLE_BY_USB) */
1076:Generated_Source\PSoC4/CyLib.c ****             CY_SYS_CLK_IMO_TRIM1_REG = (uint32) imoTrim1Value;
1077:Generated_Source\PSoC4/CyLib.c **** 
1078:Generated_Source\PSoC4/CyLib.c ****             /* Zero out fine trim */
1079:Generated_Source\PSoC4/CyLib.c ****             CY_SYS_CLK_IMO_TRIM2_REG = CY_SYS_CLK_IMO_TRIM2_REG & ((uint32) ~CY_SYS_CLK_IMO_TRIM2_F
1080:Generated_Source\PSoC4/CyLib.c **** 
1081:Generated_Source\PSoC4/CyLib.c ****             /* Apply TC trim */
1082:Generated_Source\PSoC4/CyLib.c ****             CY_SYS_CLK_IMO_TRIM3_REG = (CY_SYS_CLK_IMO_TRIM3_REG & ((uint32) ~CY_SYS_CLK_IMO_TRIM3_
1083:Generated_Source\PSoC4/CyLib.c ****                 (CY_SFLASH_IMO_TCTRIM_REG(freq - CY_SYS_CLK_IMO_MIN_FREQ_MHZ) & CY_SYS_CLK_IMO_TRIM
1084:Generated_Source\PSoC4/CyLib.c **** 
1085:Generated_Source\PSoC4/CyLib.c ****             CyDelayCycles(CY_SYS_CLK_IMO_TRIM_DELAY_CYCLES);
1086:Generated_Source\PSoC4/CyLib.c **** 
1087:Generated_Source\PSoC4/CyLib.c ****             if (freq > CY_SYS_CLK_IMO_MIN_FREQ_MHZ)
1088:Generated_Source\PSoC4/CyLib.c ****             {
1089:Generated_Source\PSoC4/CyLib.c ****                 /* Select nearby intermediate frequency */
1090:Generated_Source\PSoC4/CyLib.c ****                 CY_SYS_CLK_IMO_SELECT_REG = (CY_SYS_CLK_IMO_SELECT_REG & ((uint32) ~CY_SYS_CLK_IMO_
1091:Generated_Source\PSoC4/CyLib.c ****                     (((freq - 4u - CY_SYS_CLK_IMO_MIN_FREQ_MHZ) >> 2u) & CY_SYS_CLK_IMO_SELECT_FREQ
1092:Generated_Source\PSoC4/CyLib.c **** 
1093:Generated_Source\PSoC4/CyLib.c ****                 CyDelayCycles(CY_SYS_CLK_IMO_TRIM_DELAY_CYCLES);
1094:Generated_Source\PSoC4/CyLib.c **** 
1095:Generated_Source\PSoC4/CyLib.c ****                 /* Make small step to final frequency */
1096:Generated_Source\PSoC4/CyLib.c ****                 /* Select nearby intermediate frequency */
1097:Generated_Source\PSoC4/CyLib.c ****                 CY_SYS_CLK_IMO_SELECT_REG = (CY_SYS_CLK_IMO_SELECT_REG & ((uint32) ~CY_SYS_CLK_IMO_
1098:Generated_Source\PSoC4/CyLib.c ****                     (((freq - CY_SYS_CLK_IMO_MIN_FREQ_MHZ) >> 2u) & CY_SYS_CLK_IMO_SELECT_FREQ_MASK
1099:Generated_Source\PSoC4/CyLib.c ****             }
1100:Generated_Source\PSoC4/CyLib.c **** 
1101:Generated_Source\PSoC4/CyLib.c ****             #if (CY_IP_IMO_TRIMMABLE_BY_WCO)
1102:Generated_Source\PSoC4/CyLib.c ****                 if (1u == wcoLock)
1103:Generated_Source\PSoC4/CyLib.c ****                 {
1104:Generated_Source\PSoC4/CyLib.c ****                     CySysClkImoEnableWcoLock();
1105:Generated_Source\PSoC4/CyLib.c ****                 }
1106:Generated_Source\PSoC4/CyLib.c ****             #endif  /* (CY_IP_IMO_TRIMMABLE_BY_WCO) */
1107:Generated_Source\PSoC4/CyLib.c **** 
1108:Generated_Source\PSoC4/CyLib.c **** 
ARM GAS  C:\Users\rolf\AppData\Local\Temp\ccET1jSp.s 			page 36


1109:Generated_Source\PSoC4/CyLib.c ****             #if (CY_IP_IMO_TRIMMABLE_BY_USB)
1110:Generated_Source\PSoC4/CyLib.c ****                 if (1u == usbLock)
1111:Generated_Source\PSoC4/CyLib.c ****                 {
1112:Generated_Source\PSoC4/CyLib.c ****                     CySysClkImoEnableUsbLock();
1113:Generated_Source\PSoC4/CyLib.c ****                 }
1114:Generated_Source\PSoC4/CyLib.c ****             #endif  /* (CY_IP_IMO_TRIMMABLE_BY_USB) */
1115:Generated_Source\PSoC4/CyLib.c **** 
1116:Generated_Source\PSoC4/CyLib.c ****             CyExitCriticalSection(interruptState);
1117:Generated_Source\PSoC4/CyLib.c ****         }
1118:Generated_Source\PSoC4/CyLib.c ****         else
1119:Generated_Source\PSoC4/CyLib.c ****         {
1120:Generated_Source\PSoC4/CyLib.c ****             /* Halt CPU in debug mode if new frequency is invalid */
1121:Generated_Source\PSoC4/CyLib.c ****             CYASSERT(0u != 0u);
1122:Generated_Source\PSoC4/CyLib.c ****         }
1123:Generated_Source\PSoC4/CyLib.c ****     }
1124:Generated_Source\PSoC4/CyLib.c **** 
1125:Generated_Source\PSoC4/CyLib.c **** #endif /* (CY_IP_SRSSV2) */
1126:Generated_Source\PSoC4/CyLib.c **** 
1127:Generated_Source\PSoC4/CyLib.c **** 
1128:Generated_Source\PSoC4/CyLib.c **** #if(CY_IP_SRSSLT)
1129:Generated_Source\PSoC4/CyLib.c ****     /*******************************************************************************
1130:Generated_Source\PSoC4/CyLib.c ****     * Function Name: CySysClkWriteHfclkDiv
1131:Generated_Source\PSoC4/CyLib.c ****     ****************************************************************************//**
1132:Generated_Source\PSoC4/CyLib.c ****     *
1133:Generated_Source\PSoC4/CyLib.c ****     * Selects the pre-scaler divider value for HFCLK from IMO.
1134:Generated_Source\PSoC4/CyLib.c ****     *
1135:Generated_Source\PSoC4/CyLib.c ****     * The HFCLK predivider allows the device to divide the HFCLK selection mux
1136:Generated_Source\PSoC4/CyLib.c ****     * input before use as HFCLK. The predivider is capable of dividing the HFCLK by
1137:Generated_Source\PSoC4/CyLib.c ****     * powers of 2 between 1 and 8.
1138:Generated_Source\PSoC4/CyLib.c ****     *
1139:Generated_Source\PSoC4/CyLib.c ****     * PSoC 4000: The SYSCLK has the speed of 16 MHz, so HFCLK and SYSCLK dividers
1140:Generated_Source\PSoC4/CyLib.c ****     * should be selected in a way, not to exceed 16 MHz for SYSCLK.
1141:Generated_Source\PSoC4/CyLib.c ****     *
1142:Generated_Source\PSoC4/CyLib.c ****     * If the SYSCLK clock frequency increases during the device operation, call
1143:Generated_Source\PSoC4/CyLib.c ****     * \ref CySysFlashSetWaitCycles() with the appropriate parameter to adjust the
1144:Generated_Source\PSoC4/CyLib.c ****     * number of clock cycles the cache will wait before sampling data comes back
1145:Generated_Source\PSoC4/CyLib.c ****     * from Flash. If the SYSCLK clock frequency decreases, you can call
1146:Generated_Source\PSoC4/CyLib.c ****     * \ref CySysFlashSetWaitCycles() to improve the CPU performance. See
1147:Generated_Source\PSoC4/CyLib.c ****     * \ref CySysFlashSetWaitCycles() description for more information.
1148:Generated_Source\PSoC4/CyLib.c ****     *
1149:Generated_Source\PSoC4/CyLib.c ****     * \param \ref CY_SYS_CLK_HFCLK_DIV_NODIV    Transparent mode (w/o dividing)
1150:Generated_Source\PSoC4/CyLib.c ****     * \param \ref CY_SYS_CLK_HFCLK_DIV_2        Divide selected clock source by 2
1151:Generated_Source\PSoC4/CyLib.c ****     * \param \ref CY_SYS_CLK_HFCLK_DIV_4        Divide selected clock source by 4
1152:Generated_Source\PSoC4/CyLib.c ****     * \param \ref CY_SYS_CLK_HFCLK_DIV_8        Divide selected clock source by 8
1153:Generated_Source\PSoC4/CyLib.c ****     *
1154:Generated_Source\PSoC4/CyLib.c ****     *******************************************************************************/
1155:Generated_Source\PSoC4/CyLib.c ****     void CySysClkWriteHfclkDiv(uint32 divider)
1156:Generated_Source\PSoC4/CyLib.c ****     {
1157:Generated_Source\PSoC4/CyLib.c ****         uint8  interruptState;
1158:Generated_Source\PSoC4/CyLib.c **** 
1159:Generated_Source\PSoC4/CyLib.c ****         interruptState = CyEnterCriticalSection();
1160:Generated_Source\PSoC4/CyLib.c **** 
1161:Generated_Source\PSoC4/CyLib.c ****         CY_SYS_CLK_SELECT_REG = ((CY_SYS_CLK_SELECT_REG & ((uint32) (~(CY_SYS_CLK_SELECT_HFCLK_DIV_
1162:Generated_Source\PSoC4/CyLib.c ****                                         CY_SYS_CLK_SELECT_HFCLK_DIV_SHIFT)))) |
1163:Generated_Source\PSoC4/CyLib.c ****                     ((uint32)((divider & CY_SYS_CLK_SELECT_HFCLK_DIV_MASK) << CY_SYS_CLK_SELECT_HFC
1164:Generated_Source\PSoC4/CyLib.c **** 
1165:Generated_Source\PSoC4/CyLib.c ****         CyExitCriticalSection(interruptState);
ARM GAS  C:\Users\rolf\AppData\Local\Temp\ccET1jSp.s 			page 37


1166:Generated_Source\PSoC4/CyLib.c ****     }
1167:Generated_Source\PSoC4/CyLib.c **** #endif /* (CY_IP_SRSSLT) */
1168:Generated_Source\PSoC4/CyLib.c **** 
1169:Generated_Source\PSoC4/CyLib.c **** 
1170:Generated_Source\PSoC4/CyLib.c **** #if (CY_IP_ECO)
1171:Generated_Source\PSoC4/CyLib.c **** 
1172:Generated_Source\PSoC4/CyLib.c ****     /*******************************************************************************
1173:Generated_Source\PSoC4/CyLib.c ****     * Function Name: CySysClkEcoStart
1174:Generated_Source\PSoC4/CyLib.c ****     ****************************************************************************//**
1175:Generated_Source\PSoC4/CyLib.c ****     *
1176:Generated_Source\PSoC4/CyLib.c ****     * Starts the External Crystal Oscillator (ECO). Refer to the device datasheet
1177:Generated_Source\PSoC4/CyLib.c ****     * for the ECO startup time.
1178:Generated_Source\PSoC4/CyLib.c ****     *
1179:Generated_Source\PSoC4/CyLib.c ****     * The timeout interval is measured based on the system frequency defined by
1180:Generated_Source\PSoC4/CyLib.c ****     * PSoC Creator at build time. If System clock frequency is changed in
1181:Generated_Source\PSoC4/CyLib.c ****     * runtime, the \ref CyDelayFreq() with the appropriate parameter should be
1182:Generated_Source\PSoC4/CyLib.c ****     * called.
1183:Generated_Source\PSoC4/CyLib.c ****     *
1184:Generated_Source\PSoC4/CyLib.c ****     * PSoC 4100 BLE / PSoC 4200 BLE: The WCO must be enabled prior to enabling ECO.
1185:Generated_Source\PSoC4/CyLib.c ****     *
1186:Generated_Source\PSoC4/CyLib.c ****     * \param timeoutUs Timeout in microseconds.
1187:Generated_Source\PSoC4/CyLib.c ****     *
1188:Generated_Source\PSoC4/CyLib.c ****     * If zero is specified, the function does not wait for timeout and returns
1189:Generated_Source\PSoC4/CyLib.c ****     * CYRET_SUCCESS. If non-zero is specified, the function waits for the timeout.
1190:Generated_Source\PSoC4/CyLib.c ****     *
1191:Generated_Source\PSoC4/CyLib.c ****     * \return \ref CYRET_SUCCESS Completed successfully. The ECO is oscillating and
1192:Generated_Source\PSoC4/CyLib.c ****     * amplitude reached 60% and it does not mean 24 MHz crystal is within 50 ppm.
1193:Generated_Source\PSoC4/CyLib.c ****     *
1194:Generated_Source\PSoC4/CyLib.c ****     * \return \ref CYRET_TIMEOUT Timeout occurred. If the crystal is not oscillating
1195:Generated_Source\PSoC4/CyLib.c ****     * or amplitude didn't reach 60% after specified amount of time, CYRET_TIMEOUT
1196:Generated_Source\PSoC4/CyLib.c ****     * is returned.
1197:Generated_Source\PSoC4/CyLib.c ****     *
1198:Generated_Source\PSoC4/CyLib.c ****     * \return \ref CYRET_BAD_PARAM One or more invalid parameters.
1199:Generated_Source\PSoC4/CyLib.c ****     *
1200:Generated_Source\PSoC4/CyLib.c ****     *******************************************************************************/
1201:Generated_Source\PSoC4/CyLib.c ****     cystatus CySysClkEcoStart(uint32 timeoutUs)
1202:Generated_Source\PSoC4/CyLib.c ****     {
1203:Generated_Source\PSoC4/CyLib.c ****         cystatus returnStatus = CYRET_SUCCESS;
1204:Generated_Source\PSoC4/CyLib.c **** 
1205:Generated_Source\PSoC4/CyLib.c ****         #if (CY_IP_ECO_BLESS)
1206:Generated_Source\PSoC4/CyLib.c ****             /* Enable the RF oscillator band gap */
1207:Generated_Source\PSoC4/CyLib.c ****             CY_SYS_XTAL_BLESS_RF_CONFIG_REG |= CY_SYS_XTAL_BLESS_RF_CONFIG_RF_ENABLE;
1208:Generated_Source\PSoC4/CyLib.c **** 
1209:Generated_Source\PSoC4/CyLib.c ****             /* Update trimming register */
1210:Generated_Source\PSoC4/CyLib.c ****             CY_SYS_XTAL_BLERD_BB_XO_REG = CY_SYS_XTAL_BLERD_BB_XO_TRIM;
1211:Generated_Source\PSoC4/CyLib.c **** 
1212:Generated_Source\PSoC4/CyLib.c ****             /* Enable the Crystal */
1213:Generated_Source\PSoC4/CyLib.c ****             CY_SYS_XTAL_BLERD_DBUS_REG |= CY_SYS_XTAL_BLERD_DBUS_XTAL_ENABLE;
1214:Generated_Source\PSoC4/CyLib.c **** 
1215:Generated_Source\PSoC4/CyLib.c ****         #elif (CY_IP_ECO_BLESSV3)
1216:Generated_Source\PSoC4/CyLib.c ****             uint32 regConfig;
1217:Generated_Source\PSoC4/CyLib.c ****             uint32 intrRegMaskStore = 0u;
1218:Generated_Source\PSoC4/CyLib.c **** 
1219:Generated_Source\PSoC4/CyLib.c ****             if (0u != (CY_SYS_BLESS_MT_CFG_REG & (CY_SYS_BLESS_MT_CFG_ENABLE_BLERD <<  CYFLD_BLE_BL
1220:Generated_Source\PSoC4/CyLib.c ****             {
1221:Generated_Source\PSoC4/CyLib.c ****                 CY_SYS_BLESS_MT_CFG_REG |= (CY_SYS_BLESS_MT_CFG_DPSLP_ECO_ON  <<  CYFLD_BLE_BLESS_D
1222:Generated_Source\PSoC4/CyLib.c ****             }
ARM GAS  C:\Users\rolf\AppData\Local\Temp\ccET1jSp.s 			page 38


1223:Generated_Source\PSoC4/CyLib.c ****             else
1224:Generated_Source\PSoC4/CyLib.c ****             {
1225:Generated_Source\PSoC4/CyLib.c ****                 /* Init BLE core */
1226:Generated_Source\PSoC4/CyLib.c ****                 CY_SYS_BLESS_MT_DELAY_CFG_REG = CY_SYS_BLESS_MT_DELAY_CFG_INIT;
1227:Generated_Source\PSoC4/CyLib.c ****                 CY_SYS_BLESS_MT_DELAY_CFG2_REG = CY_SYS_BLESS_MT_DELAY_CFG2_INIT;
1228:Generated_Source\PSoC4/CyLib.c ****                 CY_SYS_BLESS_MT_DELAY_CFG3_REG = CY_SYS_BLESS_MT_DELAY_CFG3_INIT;
1229:Generated_Source\PSoC4/CyLib.c **** 
1230:Generated_Source\PSoC4/CyLib.c ****                 /* RCB init */
1231:Generated_Source\PSoC4/CyLib.c ****                 regConfig = CY_SYS_RCB_CTRL_REG;
1232:Generated_Source\PSoC4/CyLib.c ****                 regConfig &= CY_SYS_RCB_CTRL_CLEAR;
1233:Generated_Source\PSoC4/CyLib.c ****                 regConfig |= CY_SYS_RCB_CTRL_INIT;
1234:Generated_Source\PSoC4/CyLib.c ****                 CY_SYS_RCB_CTRL_REG = regConfig;
1235:Generated_Source\PSoC4/CyLib.c **** 
1236:Generated_Source\PSoC4/CyLib.c ****                 intrRegMaskStore = CY_SYS_BLESS_INTR_MASK_REG;
1237:Generated_Source\PSoC4/CyLib.c ****                 if(0u != (CY_SYS_BLESS_BLERD_ACTIVE_INTR_MASK & intrRegMaskStore))
1238:Generated_Source\PSoC4/CyLib.c ****                 {
1239:Generated_Source\PSoC4/CyLib.c ****                     CY_SYS_BLESS_INTR_MASK_REG &= ~CY_SYS_BLESS_BLERD_ACTIVE_INTR_MASK;
1240:Generated_Source\PSoC4/CyLib.c ****                 }
1241:Generated_Source\PSoC4/CyLib.c **** 
1242:Generated_Source\PSoC4/CyLib.c ****                 /* Enable BLE core */
1243:Generated_Source\PSoC4/CyLib.c ****                 regConfig = CY_SYS_BLESS_MT_CFG_REG;
1244:Generated_Source\PSoC4/CyLib.c ****                 regConfig &= CY_SYS_BLESS_MT_CFG_CLEAR;
1245:Generated_Source\PSoC4/CyLib.c ****                 regConfig |= CY_SYS_BLESS_MT_CFG_INIT;
1246:Generated_Source\PSoC4/CyLib.c ****                 CY_SYS_BLESS_MT_CFG_REG = regConfig;
1247:Generated_Source\PSoC4/CyLib.c **** 
1248:Generated_Source\PSoC4/CyLib.c ****                 while(0u == ((CY_SYS_BLESS_BLERD_ACTIVE_INTR_STAT & CY_SYS_BLESS_INTR_STAT_REG)))
1249:Generated_Source\PSoC4/CyLib.c ****                 {
1250:Generated_Source\PSoC4/CyLib.c ****                     /* Wait until BLERD55 moves to active state */
1251:Generated_Source\PSoC4/CyLib.c ****                 }
1252:Generated_Source\PSoC4/CyLib.c **** 
1253:Generated_Source\PSoC4/CyLib.c ****                 if(0u != (CY_SYS_BLESS_BLERD_ACTIVE_INTR_MASK & intrRegMaskStore))
1254:Generated_Source\PSoC4/CyLib.c ****                 {
1255:Generated_Source\PSoC4/CyLib.c ****                     CY_SYS_BLESS_INTR_MASK_REG |= CY_SYS_BLESS_BLERD_ACTIVE_INTR_MASK;
1256:Generated_Source\PSoC4/CyLib.c ****                 }
1257:Generated_Source\PSoC4/CyLib.c **** 
1258:Generated_Source\PSoC4/CyLib.c ****                 /* Send write commands to RBUS */
1259:Generated_Source\PSoC4/CyLib.c ****                 CY_SYS_RCB_TX_FIFO_WR_REG = CY_SYS_RCB_RBUS_FREQ_NRST_SET;
1260:Generated_Source\PSoC4/CyLib.c ****                 CY_SYS_RCB_TX_FIFO_WR_REG = CY_SYS_RCB_RBUS_DIG_CLK_SET;
1261:Generated_Source\PSoC4/CyLib.c **** 
1262:Generated_Source\PSoC4/CyLib.c ****                 #if (CY_SYS_BLE_CLK_ECO_FREQ_32MHZ == CYDEV_ECO_CLK_MHZ)
1263:Generated_Source\PSoC4/CyLib.c ****                     CY_SYS_RCB_TX_FIFO_WR_REG = CY_SYS_RCB_RBUS_FREQ_XTAL_DIV_SET;
1264:Generated_Source\PSoC4/CyLib.c ****                     CY_SYS_RCB_TX_FIFO_WR_REG = (CY_SYS_RCB_RBUS_RF_DCXO_CFG_SET | CY_SYS_RCB_RBUS_
1265:Generated_Source\PSoC4/CyLib.c ****                 #else
1266:Generated_Source\PSoC4/CyLib.c ****                     CY_SYS_RCB_TX_FIFO_WR_REG = CY_SYS_RCB_RBUS_FREQ_XTAL_NODIV_SET;
1267:Generated_Source\PSoC4/CyLib.c ****                 #endif
1268:Generated_Source\PSoC4/CyLib.c **** 
1269:Generated_Source\PSoC4/CyLib.c ****                 intrRegMaskStore = CY_SYS_BLESS_INTR_MASK_REG;
1270:Generated_Source\PSoC4/CyLib.c ****                 if(0u != (CY_SYS_RCB_INTR_RCB_DONE & intrRegMaskStore))
1271:Generated_Source\PSoC4/CyLib.c ****                 {
1272:Generated_Source\PSoC4/CyLib.c ****                     CY_SYS_BLESS_INTR_MASK_REG &= ~(CY_SYS_RCB_INTR_RCB_DONE | CY_SYS_RCB_INTR_RCB_
1273:Generated_Source\PSoC4/CyLib.c ****                 }
1274:Generated_Source\PSoC4/CyLib.c **** 
1275:Generated_Source\PSoC4/CyLib.c ****                 /* Send read commands to RBUS */
1276:Generated_Source\PSoC4/CyLib.c ****                 CY_SYS_RCB_TX_FIFO_WR_REG = (CY_SYS_RCB_RBUS_RD_CMD |
1277:Generated_Source\PSoC4/CyLib.c ****                                             (CY_SYS_RCB_RBUS_RF_DCXO_CFG_SET & ~CY_SYS_RCB_RBUS_VAL
1278:Generated_Source\PSoC4/CyLib.c **** 
1279:Generated_Source\PSoC4/CyLib.c ****                 while (0u == (CY_SYS_RCB_INTR_RCB_RX_FIFO_NOT_EMPTY & CY_SYS_RCB_INTR_REG))
ARM GAS  C:\Users\rolf\AppData\Local\Temp\ccET1jSp.s 			page 39


1280:Generated_Source\PSoC4/CyLib.c ****                 {
1281:Generated_Source\PSoC4/CyLib.c ****                     /* Wait until RX_FIFO_NOT_EMPTY state */
1282:Generated_Source\PSoC4/CyLib.c ****                 }
1283:Generated_Source\PSoC4/CyLib.c **** 
1284:Generated_Source\PSoC4/CyLib.c ****                 CY_SYS_RCB_INTR_REG |= CY_SYS_RCB_INTR_RCB_DONE;
1285:Generated_Source\PSoC4/CyLib.c **** 
1286:Generated_Source\PSoC4/CyLib.c ****                 regConfig = CY_SYS_RCB_RX_FIFO_RD_REG & CY_SYS_RCB_RBUS_TRIM_MASK;
1287:Generated_Source\PSoC4/CyLib.c **** 
1288:Generated_Source\PSoC4/CyLib.c ****                 /* Send write commands to RBUS */
1289:Generated_Source\PSoC4/CyLib.c ****                 CY_SYS_RCB_TX_FIFO_WR_REG = (CY_SYS_RCB_RBUS_RF_DCXO_CFG_SET | regConfig | CY_SYS_R
1290:Generated_Source\PSoC4/CyLib.c **** 
1291:Generated_Source\PSoC4/CyLib.c ****                 while (0u == (CY_SYS_RCB_INTR_RCB_DONE & CY_SYS_RCB_INTR_REG))
1292:Generated_Source\PSoC4/CyLib.c ****                 {
1293:Generated_Source\PSoC4/CyLib.c ****                     /* Wait until RCB_DONE state */
1294:Generated_Source\PSoC4/CyLib.c ****                 }
1295:Generated_Source\PSoC4/CyLib.c **** 
1296:Generated_Source\PSoC4/CyLib.c ****                 /* Clear Interrupt */
1297:Generated_Source\PSoC4/CyLib.c ****                 CY_SYS_RCB_INTR_REG = CY_SYS_RCB_INTR_CLEAR;
1298:Generated_Source\PSoC4/CyLib.c **** 
1299:Generated_Source\PSoC4/CyLib.c ****                 if(0u != ((CY_SYS_RCB_INTR_RCB_DONE | CY_SYS_RCB_INTR_RCB_RX_FIFO_NOT_EMPTY) & intr
1300:Generated_Source\PSoC4/CyLib.c ****                 {
1301:Generated_Source\PSoC4/CyLib.c ****                     CY_SYS_BLESS_INTR_MASK_REG |= intrRegMaskStore;
1302:Generated_Source\PSoC4/CyLib.c ****                 }
1303:Generated_Source\PSoC4/CyLib.c **** 
1304:Generated_Source\PSoC4/CyLib.c ****             }
1305:Generated_Source\PSoC4/CyLib.c ****         #else /* CY_IP_ECO_SRSSV2 || CY_IP_ECO_SRSSLT */
1306:Generated_Source\PSoC4/CyLib.c ****             CY_SYS_CLK_ECO_CONFIG_REG |= CY_SYS_CLK_ECO_CONFIG_ENABLE;
1307:Generated_Source\PSoC4/CyLib.c ****             CyDelayUs(CY_SYS_CLK_ECO_CONFIG_CLK_EN_TIMEOUT_US);
1308:Generated_Source\PSoC4/CyLib.c ****             #if (CY_IP_ECOV2_SRSSLT)
1309:Generated_Source\PSoC4/CyLib.c ****                 CySysClkPllClearPendingInterrupt(CY_SYS_PLL_INTR_WD_ERR);
1310:Generated_Source\PSoC4/CyLib.c ****             #endif /* (CY_IP_ECOV2_SRSSLT) */
1311:Generated_Source\PSoC4/CyLib.c ****             CY_SYS_CLK_ECO_CONFIG_REG |= CY_SYS_CLK_ECO_CONFIG_CLK_EN;
1312:Generated_Source\PSoC4/CyLib.c ****         #endif /* (CY_IP_ECO_BLESS) */
1313:Generated_Source\PSoC4/CyLib.c **** 
1314:Generated_Source\PSoC4/CyLib.c ****         if(timeoutUs > 0u)
1315:Generated_Source\PSoC4/CyLib.c ****         {
1316:Generated_Source\PSoC4/CyLib.c ****             returnStatus = CYRET_TIMEOUT;
1317:Generated_Source\PSoC4/CyLib.c **** 
1318:Generated_Source\PSoC4/CyLib.c ****             for( ; timeoutUs > 0u; timeoutUs--)
1319:Generated_Source\PSoC4/CyLib.c ****             {
1320:Generated_Source\PSoC4/CyLib.c ****                 CyDelayUs(1u);
1321:Generated_Source\PSoC4/CyLib.c **** 
1322:Generated_Source\PSoC4/CyLib.c ****                 if(0u != CySysClkEcoReadStatus())
1323:Generated_Source\PSoC4/CyLib.c ****                 {
1324:Generated_Source\PSoC4/CyLib.c ****                     returnStatus = CYRET_SUCCESS;
1325:Generated_Source\PSoC4/CyLib.c ****                     break;
1326:Generated_Source\PSoC4/CyLib.c ****                 }
1327:Generated_Source\PSoC4/CyLib.c ****             }
1328:Generated_Source\PSoC4/CyLib.c **** 
1329:Generated_Source\PSoC4/CyLib.c ****         }
1330:Generated_Source\PSoC4/CyLib.c **** 
1331:Generated_Source\PSoC4/CyLib.c ****         return(returnStatus);
1332:Generated_Source\PSoC4/CyLib.c ****     }
1333:Generated_Source\PSoC4/CyLib.c **** 
1334:Generated_Source\PSoC4/CyLib.c **** 
1335:Generated_Source\PSoC4/CyLib.c ****     /*******************************************************************************
1336:Generated_Source\PSoC4/CyLib.c ****     * Function Name: CySysClkEcoStop
ARM GAS  C:\Users\rolf\AppData\Local\Temp\ccET1jSp.s 			page 40


1337:Generated_Source\PSoC4/CyLib.c ****     ****************************************************************************//**
1338:Generated_Source\PSoC4/CyLib.c ****     *
1339:Generated_Source\PSoC4/CyLib.c ****     * Stops the megahertz crystal.
1340:Generated_Source\PSoC4/CyLib.c ****     *
1341:Generated_Source\PSoC4/CyLib.c ****     * If ECO is disabled when it is sourcing HFCLK, the CPU will halt. In addition,
1342:Generated_Source\PSoC4/CyLib.c ****     * for PSoC 4100 BLE / PSoC 4200 BLE devices, the BLE sub-system will stop
1343:Generated_Source\PSoC4/CyLib.c ****     * functioning.
1344:Generated_Source\PSoC4/CyLib.c ****     *
1345:Generated_Source\PSoC4/CyLib.c ****     *******************************************************************************/
1346:Generated_Source\PSoC4/CyLib.c ****     void CySysClkEcoStop(void)
1347:Generated_Source\PSoC4/CyLib.c ****     {
 831              		.loc 1 1347 0
 832              		.cfi_startproc
 833              		@ args = 0, pretend = 0, frame = 0
 834              		@ frame_needed = 0, uses_anonymous_args = 0
 835              		@ link register save eliminated.
1348:Generated_Source\PSoC4/CyLib.c ****         #if (CY_IP_WCO_BLESS)
1349:Generated_Source\PSoC4/CyLib.c ****             /* Disable the RF oscillator band gap */
1350:Generated_Source\PSoC4/CyLib.c ****             CY_SYS_XTAL_BLESS_RF_CONFIG_REG &= (uint32) ~CY_SYS_XTAL_BLESS_RF_CONFIG_RF_ENABLE;
1351:Generated_Source\PSoC4/CyLib.c **** 
1352:Generated_Source\PSoC4/CyLib.c ****             /* Disable the Crystal */
1353:Generated_Source\PSoC4/CyLib.c ****             CY_SYS_XTAL_BLERD_DBUS_REG &= (uint32) ~CY_SYS_XTAL_BLERD_DBUS_XTAL_ENABLE;
1354:Generated_Source\PSoC4/CyLib.c ****         #elif (CY_IP_ECO_BLESSV3)
1355:Generated_Source\PSoC4/CyLib.c ****             CY_SYS_BLESS_MT_CFG_REG &= ~(CY_SYS_BLESS_MT_CFG_DPSLP_ECO_ON  <<  CYFLD_BLE_BLESS_DPSL
1356:Generated_Source\PSoC4/CyLib.c ****         #else
1357:Generated_Source\PSoC4/CyLib.c ****             CY_SYS_CLK_ECO_CONFIG_REG &= (uint32) ~(CY_SYS_CLK_ECO_CONFIG_ENABLE | CY_SYS_CLK_ECO_C
 836              		.loc 1 1357 0
 837 0000 024A     		ldr	r2, .L70
 838 0002 1168     		ldr	r1, [r2]
 839 0004 024B     		ldr	r3, .L70+4
 840 0006 0B40     		ands	r3, r1
 841 0008 1360     		str	r3, [r2]
1358:Generated_Source\PSoC4/CyLib.c ****         #endif /* (CY_IP_WCO_BLESS) */
1359:Generated_Source\PSoC4/CyLib.c ****     }
 842              		.loc 1 1359 0
 843              		@ sp needed
 844 000a 7047     		bx	lr
 845              	.L71:
 846              		.align	2
 847              	.L70:
 848 000c 08000C40 		.word	1074528264
 849 0010 FEFFFF7F 		.word	2147483646
 850              		.cfi_endproc
 851              	.LFE17:
 852              		.size	CySysClkEcoStop, .-CySysClkEcoStop
 853              		.section	.text.CySysClkEcoReadStatus,"ax",%progbits
 854              		.align	2
 855              		.global	CySysClkEcoReadStatus
 856              		.code	16
 857              		.thumb_func
 858              		.type	CySysClkEcoReadStatus, %function
 859              	CySysClkEcoReadStatus:
 860              	.LFB18:
1360:Generated_Source\PSoC4/CyLib.c **** 
1361:Generated_Source\PSoC4/CyLib.c **** 
1362:Generated_Source\PSoC4/CyLib.c ****     /*******************************************************************************
1363:Generated_Source\PSoC4/CyLib.c ****     * Function Name: CySysClkEcoReadStatus
ARM GAS  C:\Users\rolf\AppData\Local\Temp\ccET1jSp.s 			page 41


1364:Generated_Source\PSoC4/CyLib.c ****     ****************************************************************************//**
1365:Generated_Source\PSoC4/CyLib.c ****     *
1366:Generated_Source\PSoC4/CyLib.c ****     * Reads the status bit for the megahertz crystal.
1367:Generated_Source\PSoC4/CyLib.c ****     *
1368:Generated_Source\PSoC4/CyLib.c ****     * For PSoC 4100 BLE / PSoC 4200 BLE devices, the status bit is the
1369:Generated_Source\PSoC4/CyLib.c ****     * XO_AMP_DETECT bit in FSM register.
1370:Generated_Source\PSoC4/CyLib.c ****     *
1371:Generated_Source\PSoC4/CyLib.c ****     * For PSoC 4200L / 4100S / 4500 with ECO devices, the error status bit is
1372:Generated_Source\PSoC4/CyLib.c ****     * the WATCHDOG_ERROR bit in ECO_STATUS register.
1373:Generated_Source\PSoC4/CyLib.c ****     *
1374:Generated_Source\PSoC4/CyLib.c ****     * \return PSoC 4100 BLE/PSoC 4200 BLE: Non-zero indicates that ECO output
1375:Generated_Source\PSoC4/CyLib.c ****     * reached 50 ppm and is oscillating in valid range.
1376:Generated_Source\PSoC4/CyLib.c ****     *
1377:Generated_Source\PSoC4/CyLib.c ****     * \return PSoC 4200L / 4100S / 4500 with ECO: Non-zero indicates that ECO
1378:Generated_Source\PSoC4/CyLib.c ****     * is running.
1379:Generated_Source\PSoC4/CyLib.c ****     *
1380:Generated_Source\PSoC4/CyLib.c ****     *******************************************************************************/
1381:Generated_Source\PSoC4/CyLib.c ****     uint32 CySysClkEcoReadStatus(void)
1382:Generated_Source\PSoC4/CyLib.c ****     {
 861              		.loc 1 1382 0
 862              		.cfi_startproc
 863              		@ args = 0, pretend = 0, frame = 0
 864              		@ frame_needed = 0, uses_anonymous_args = 0
 865              		@ link register save eliminated.
1383:Generated_Source\PSoC4/CyLib.c ****         uint32 returnValue;
1384:Generated_Source\PSoC4/CyLib.c **** 
1385:Generated_Source\PSoC4/CyLib.c ****         #if (CY_IP_WCO_BLESS)
1386:Generated_Source\PSoC4/CyLib.c ****             returnValue = CY_SYS_XTAL_BLERD_FSM_REG & CY_SYS_XTAL_BLERD_FSM_XO_AMP_DETECT;
1387:Generated_Source\PSoC4/CyLib.c ****         #elif (CY_IP_ECO_BLESSV3)
1388:Generated_Source\PSoC4/CyLib.c ****             returnValue = (CY_SYS_BLESS_MT_STATUS_REG & CY_SYS_BLESS_MT_STATUS_CURR_STATE_MASK) >> 
1389:Generated_Source\PSoC4/CyLib.c **** 
1390:Generated_Source\PSoC4/CyLib.c ****             returnValue =  ((CY_SYS_BLESS_MT_STATUS_BLERD_IDLE == returnValue) ||
1391:Generated_Source\PSoC4/CyLib.c ****                             (CY_SYS_BLESS_MT_STATUS_SWITCH_EN  == returnValue) ||
1392:Generated_Source\PSoC4/CyLib.c ****                             (CY_SYS_BLESS_MT_STATUS_ACTIVE  ==  returnValue) ||
1393:Generated_Source\PSoC4/CyLib.c ****                             (CY_SYS_BLESS_MT_STATUS_ISOLATE == returnValue));
1394:Generated_Source\PSoC4/CyLib.c ****         #else
1395:Generated_Source\PSoC4/CyLib.c ****             returnValue = (0u != (CY_SYS_CLK_ECO_STATUS_REG & CY_SYS_CLK_ECO_STATUS_WATCHDOG_ERROR)
 866              		.loc 1 1395 0
 867 0000 034B     		ldr	r3, .L73
 868 0002 1B68     		ldr	r3, [r3]
 869 0004 0120     		movs	r0, #1
 870 0006 1840     		ands	r0, r3
 871 0008 4342     		rsbs	r3, r0, #0
 872 000a 5841     		adcs	r0, r0, r3
 873 000c C0B2     		uxtb	r0, r0
 874              	.LVL63:
1396:Generated_Source\PSoC4/CyLib.c ****         #endif /* (CY_IP_WCO_BLESS) */
1397:Generated_Source\PSoC4/CyLib.c **** 
1398:Generated_Source\PSoC4/CyLib.c ****         return (returnValue);
1399:Generated_Source\PSoC4/CyLib.c ****     }
 875              		.loc 1 1399 0
 876              		@ sp needed
 877 000e 7047     		bx	lr
 878              	.L74:
 879              		.align	2
 880              	.L73:
 881 0010 0C000C40 		.word	1074528268
ARM GAS  C:\Users\rolf\AppData\Local\Temp\ccET1jSp.s 			page 42


 882              		.cfi_endproc
 883              	.LFE18:
 884              		.size	CySysClkEcoReadStatus, .-CySysClkEcoReadStatus
 885              		.section	.text.CySysClkConfigureEcoTrim,"ax",%progbits
 886              		.align	2
 887              		.global	CySysClkConfigureEcoTrim
 888              		.code	16
 889              		.thumb_func
 890              		.type	CySysClkConfigureEcoTrim, %function
 891              	CySysClkConfigureEcoTrim:
 892              	.LFB19:
1400:Generated_Source\PSoC4/CyLib.c **** 
1401:Generated_Source\PSoC4/CyLib.c ****     #if (CY_IP_ECO_BLESS || CY_IP_ECO_BLESSV3)
1402:Generated_Source\PSoC4/CyLib.c ****         /*******************************************************************************
1403:Generated_Source\PSoC4/CyLib.c ****         * Function Name: CySysClkWriteEcoDiv
1404:Generated_Source\PSoC4/CyLib.c ****         ****************************************************************************//**
1405:Generated_Source\PSoC4/CyLib.c ****         *
1406:Generated_Source\PSoC4/CyLib.c ****         * Selects value for the ECO divider.
1407:Generated_Source\PSoC4/CyLib.c ****         *
1408:Generated_Source\PSoC4/CyLib.c ****         * The ECO must not be the HFCLK clock source when this function is called.
1409:Generated_Source\PSoC4/CyLib.c ****         * The HFCLK source can be changed to the other clock source by call to the
1410:Generated_Source\PSoC4/CyLib.c ****         * CySysClkWriteHfclkDirect() function. If the ECO sources the HFCLK this
1411:Generated_Source\PSoC4/CyLib.c ****         * function will not have any effect if compiler in release mode, and halt the
1412:Generated_Source\PSoC4/CyLib.c ****         * CPU when compiler in debug mode.
1413:Generated_Source\PSoC4/CyLib.c ****         *
1414:Generated_Source\PSoC4/CyLib.c ****         * If the SYSCLK clock frequency increases during the device operation, call
1415:Generated_Source\PSoC4/CyLib.c ****         * CySysFlashSetWaitCycles() with the appropriate parameter to adjust the number
1416:Generated_Source\PSoC4/CyLib.c ****         * of clock cycles the cache will wait before sampling data comes back from
1417:Generated_Source\PSoC4/CyLib.c ****         * Flash. If the SYSCLK clock frequency decreases, you can call
1418:Generated_Source\PSoC4/CyLib.c ****         * CySysFlashSetWaitCycles() to improve the CPU performance. See
1419:Generated_Source\PSoC4/CyLib.c ****         * CySysFlashSetWaitCycles() description for more information.
1420:Generated_Source\PSoC4/CyLib.c ****         *
1421:Generated_Source\PSoC4/CyLib.c ****         * \param divider Power of 2 divider selection.
1422:Generated_Source\PSoC4/CyLib.c ****         * - \ref CY_SYS_CLK_ECO_DIV1
1423:Generated_Source\PSoC4/CyLib.c ****         * - \ref CY_SYS_CLK_ECO_DIV2
1424:Generated_Source\PSoC4/CyLib.c ****         * - \ref CY_SYS_CLK_ECO_DIV4
1425:Generated_Source\PSoC4/CyLib.c ****         * - \ref CY_SYS_CLK_ECO_DIV8
1426:Generated_Source\PSoC4/CyLib.c ****         *
1427:Generated_Source\PSoC4/CyLib.c ****         *******************************************************************************/
1428:Generated_Source\PSoC4/CyLib.c ****         void CySysClkWriteEcoDiv(uint32 divider)
1429:Generated_Source\PSoC4/CyLib.c ****         {
1430:Generated_Source\PSoC4/CyLib.c ****             uint8  interruptState;
1431:Generated_Source\PSoC4/CyLib.c **** 
1432:Generated_Source\PSoC4/CyLib.c ****             if (CY_SYS_CLK_HFCLK_ECO != (CY_SYS_CLK_SELECT_REG & CY_SYS_CLK_SELECT_DIRECT_SEL_MASK)
1433:Generated_Source\PSoC4/CyLib.c ****             {
1434:Generated_Source\PSoC4/CyLib.c ****                 interruptState = CyEnterCriticalSection();
1435:Generated_Source\PSoC4/CyLib.c **** 
1436:Generated_Source\PSoC4/CyLib.c ****                 CY_SYS_CLK_XTAL_CLK_DIV_CONFIG_REG =  (divider & CY_SYS_CLK_XTAL_CLK_DIV_MASK) |
1437:Generated_Source\PSoC4/CyLib.c ****                                                       (CY_SYS_CLK_XTAL_CLK_DIV_CONFIG_REG & ((uint3
1438:Generated_Source\PSoC4/CyLib.c **** 
1439:Generated_Source\PSoC4/CyLib.c ****                 CyExitCriticalSection(interruptState);
1440:Generated_Source\PSoC4/CyLib.c ****             }
1441:Generated_Source\PSoC4/CyLib.c ****             else
1442:Generated_Source\PSoC4/CyLib.c ****             {
1443:Generated_Source\PSoC4/CyLib.c ****                 /* Halt CPU in debug mode if ECO sources HFCLK */
1444:Generated_Source\PSoC4/CyLib.c ****                 CYASSERT(0u != 0u);
1445:Generated_Source\PSoC4/CyLib.c ****             }
ARM GAS  C:\Users\rolf\AppData\Local\Temp\ccET1jSp.s 			page 43


1446:Generated_Source\PSoC4/CyLib.c ****         }
1447:Generated_Source\PSoC4/CyLib.c **** 
1448:Generated_Source\PSoC4/CyLib.c ****     #else
1449:Generated_Source\PSoC4/CyLib.c **** 
1450:Generated_Source\PSoC4/CyLib.c ****         /*******************************************************************************
1451:Generated_Source\PSoC4/CyLib.c ****         * Function Name: CySysClkConfigureEcoTrim
1452:Generated_Source\PSoC4/CyLib.c ****         ****************************************************************************//**
1453:Generated_Source\PSoC4/CyLib.c ****         *
1454:Generated_Source\PSoC4/CyLib.c ****         * Selects trim setting values for ECO. This API is available only for PSoC
1455:Generated_Source\PSoC4/CyLib.c ****         * 4200L / 4100S /4500 with ECO devices only.
1456:Generated_Source\PSoC4/CyLib.c ****         *
1457:Generated_Source\PSoC4/CyLib.c ****         * The following parameters can be trimmed for ECO. The affected registers are
1458:Generated_Source\PSoC4/CyLib.c ****         * ECO_TRIM0 and ECO_TRIM1.
1459:Generated_Source\PSoC4/CyLib.c ****         *
1460:Generated_Source\PSoC4/CyLib.c ****         * Watchdog trim - This bit field sets the error threshold below the steady
1461:Generated_Source\PSoC4/CyLib.c ****         * state amplitude level.
1462:Generated_Source\PSoC4/CyLib.c ****         *
1463:Generated_Source\PSoC4/CyLib.c ****         * Amplitude trim - This bit field is to set the crystal drive level when
1464:Generated_Source\PSoC4/CyLib.c ****         * ECO_CONFIG.AGC_EN = 1. WARNING: use care when setting this field because
1465:Generated_Source\PSoC4/CyLib.c ****         * driving a crystal beyond its rated limit can permanently damage the crystal.
1466:Generated_Source\PSoC4/CyLib.c ****         *
1467:Generated_Source\PSoC4/CyLib.c ****         * Filter frequency trim - This bit field sets LPF frequency trim and affects
1468:Generated_Source\PSoC4/CyLib.c ****         * the 3rd harmonic content.
1469:Generated_Source\PSoC4/CyLib.c ****         *
1470:Generated_Source\PSoC4/CyLib.c ****         * Feedback resistor trim - This bit field sets the feedback resistor trim and
1471:Generated_Source\PSoC4/CyLib.c ****         * impacts the oscillation amplitude.
1472:Generated_Source\PSoC4/CyLib.c ****         *
1473:Generated_Source\PSoC4/CyLib.c ****         * Amplifier gain trim - This bit field sets the amplifier gain trim and affects
1474:Generated_Source\PSoC4/CyLib.c ****         * the startup time of the crystal.
1475:Generated_Source\PSoC4/CyLib.c ****         *
1476:Generated_Source\PSoC4/CyLib.c ****         * Use care when setting the amplitude trim field because driving a crystal
1477:Generated_Source\PSoC4/CyLib.c ****         * beyond its rated limit can permanently damage the crystal.
1478:Generated_Source\PSoC4/CyLib.c ****         *
1479:Generated_Source\PSoC4/CyLib.c ****         * \param wDTrim: Watchdog trim
1480:Generated_Source\PSoC4/CyLib.c ****         * - \ref CY_SYS_CLK_ECO_WDTRIM0      Error threshold is 0.05 V
1481:Generated_Source\PSoC4/CyLib.c ****         * - \ref CY_SYS_CLK_ECO_WDTRIM1      Error threshold is 0.10 V
1482:Generated_Source\PSoC4/CyLib.c ****         * - \ref CY_SYS_CLK_ECO_WDTRIM2      Error threshold is 0.15 V
1483:Generated_Source\PSoC4/CyLib.c ****         * - \ref CY_SYS_CLK_ECO_WDTRIM3      Error threshold is 0.20 V
1484:Generated_Source\PSoC4/CyLib.c ****         *
1485:Generated_Source\PSoC4/CyLib.c ****         * \param aTrim: Amplitude trim
1486:Generated_Source\PSoC4/CyLib.c ****         * - \ref CY_SYS_CLK_ECO_ATRIM0       Amplitude is 0.3 Vpp
1487:Generated_Source\PSoC4/CyLib.c ****         * - \ref CY_SYS_CLK_ECO_ATRIM1       Amplitude is 0.4 Vpp
1488:Generated_Source\PSoC4/CyLib.c ****         * - \ref CY_SYS_CLK_ECO_ATRIM2       Amplitude is 0.5 Vpp
1489:Generated_Source\PSoC4/CyLib.c ****         * - \ref CY_SYS_CLK_ECO_ATRIM3       Amplitude is 0.6 Vpp
1490:Generated_Source\PSoC4/CyLib.c ****         * - \ref CY_SYS_CLK_ECO_ATRIM4       Amplitude is 0.7 Vpp
1491:Generated_Source\PSoC4/CyLib.c ****         * - \ref CY_SYS_CLK_ECO_ATRIM5       Amplitude is 0.8 Vpp
1492:Generated_Source\PSoC4/CyLib.c ****         * - \ref CY_SYS_CLK_ECO_ATRIM6       Amplitude is 0.9 Vpp
1493:Generated_Source\PSoC4/CyLib.c ****         * - \ref CY_SYS_CLK_ECO_ATRIM7       Amplitude is 1.0 Vpp
1494:Generated_Source\PSoC4/CyLib.c ****         *
1495:Generated_Source\PSoC4/CyLib.c ****         * \param fTrim: Filter frequency trim
1496:Generated_Source\PSoC4/CyLib.c ****         * - \ref CY_SYS_CLK_ECO_FTRIM0       Crystal frequency > 30 MHz
1497:Generated_Source\PSoC4/CyLib.c ****         * - \ref CY_SYS_CLK_ECO_FTRIM1       24 MHz < Crystal frequency <= 30 MHz
1498:Generated_Source\PSoC4/CyLib.c ****         * - \ref CY_SYS_CLK_ECO_FTRIM2       17 MHz < Crystal frequency <= 24 MHz
1499:Generated_Source\PSoC4/CyLib.c ****         * - \ref CY_SYS_CLK_ECO_FTRIM3       Crystal frequency <= 17 MHz
1500:Generated_Source\PSoC4/CyLib.c ****         *
1501:Generated_Source\PSoC4/CyLib.c ****         * \param rTrim: Feedback resistor trim
1502:Generated_Source\PSoC4/CyLib.c ****         * - \ref CY_SYS_CLK_ECO_RTRIM0       Crystal frequency > 30 MHz
ARM GAS  C:\Users\rolf\AppData\Local\Temp\ccET1jSp.s 			page 44


1503:Generated_Source\PSoC4/CyLib.c ****         * - \ref CY_SYS_CLK_ECO_RTRIM1       24 MHz < Crystal frequency <= 30 MHz
1504:Generated_Source\PSoC4/CyLib.c ****         * - \ref CY_SYS_CLK_ECO_RTRIM2       17 MHz < Crystal frequency <= 24 MHz
1505:Generated_Source\PSoC4/CyLib.c ****         * - \ref CY_SYS_CLK_ECO_RTRIM3       Crystal frequency <= 17 MHz
1506:Generated_Source\PSoC4/CyLib.c ****         *
1507:Generated_Source\PSoC4/CyLib.c ****         * \param gTrim: Amplifier gain trim. Calculate the minimum required gm
1508:Generated_Source\PSoC4/CyLib.c ****         * (trans-conductance value). Divide the calculated gm value by 4.5 to
1509:Generated_Source\PSoC4/CyLib.c ****         * obtain an integer value 'result'. For more information please refer
1510:Generated_Source\PSoC4/CyLib.c ****         * to the device TRM.
1511:Generated_Source\PSoC4/CyLib.c ****         * - \ref CY_SYS_CLK_ECO_GTRIM0       If result = 1
1512:Generated_Source\PSoC4/CyLib.c ****         * - \ref CY_SYS_CLK_ECO_GTRIM1       If result = 0
1513:Generated_Source\PSoC4/CyLib.c ****         * - \ref CY_SYS_CLK_ECO_GTRIM2       If result = 2
1514:Generated_Source\PSoC4/CyLib.c ****         * - \ref CY_SYS_CLK_ECO_GTRIM2       If result = 3
1515:Generated_Source\PSoC4/CyLib.c ****         *
1516:Generated_Source\PSoC4/CyLib.c ****         *******************************************************************************/
1517:Generated_Source\PSoC4/CyLib.c ****         void CySysClkConfigureEcoTrim(uint32 wDTrim, uint32 aTrim, uint32 fTrim, uint32 rTrim, uint
1518:Generated_Source\PSoC4/CyLib.c ****         {
 893              		.loc 1 1518 0
 894              		.cfi_startproc
 895              		@ args = 4, pretend = 0, frame = 0
 896              		@ frame_needed = 0, uses_anonymous_args = 0
 897              	.LVL64:
 898 0000 F0B5     		push	{r4, r5, r6, r7, lr}
 899              		.cfi_def_cfa_offset 20
 900              		.cfi_offset 4, -20
 901              		.cfi_offset 5, -16
 902              		.cfi_offset 6, -12
 903              		.cfi_offset 7, -8
 904              		.cfi_offset 14, -4
 905 0002 4746     		mov	r7, r8
 906 0004 80B4     		push	{r7}
 907              		.cfi_def_cfa_offset 24
 908              		.cfi_offset 8, -24
 909 0006 0700     		movs	r7, r0
 910 0008 0D00     		movs	r5, r1
 911 000a 1600     		movs	r6, r2
 912 000c 9846     		mov	r8, r3
1519:Generated_Source\PSoC4/CyLib.c ****             uint8  interruptState;
1520:Generated_Source\PSoC4/CyLib.c ****             uint32 regTmp;
1521:Generated_Source\PSoC4/CyLib.c **** 
1522:Generated_Source\PSoC4/CyLib.c ****             interruptState = CyEnterCriticalSection();
 913              		.loc 1 1522 0
 914 000e FFF7FEFF 		bl	CyEnterCriticalSection
 915              	.LVL65:
1523:Generated_Source\PSoC4/CyLib.c **** 
1524:Generated_Source\PSoC4/CyLib.c ****             regTmp  = CY_SYS_CLK_ECO_TRIM0_REG & ~(CY_SYS_CLK_ECO_TRIM0_WDTRIM_MASK | CY_SYS_CLK_EC
 916              		.loc 1 1524 0
 917 0012 114A     		ldr	r2, .L76
 918 0014 1368     		ldr	r3, [r2]
 919 0016 1F21     		movs	r1, #31
 920 0018 8B43     		bics	r3, r1
 921              	.LVL66:
1525:Generated_Source\PSoC4/CyLib.c ****             regTmp |= ((uint32) (wDTrim << CY_SYS_CLK_ECO_TRIM0_WDTRIM_SHIFT) & CY_SYS_CLK_ECO_TRIM
 922              		.loc 1 1525 0
 923 001a 0324     		movs	r4, #3
 924 001c 2740     		ands	r7, r4
 925              	.LVL67:
 926 001e 1F43     		orrs	r7, r3
ARM GAS  C:\Users\rolf\AppData\Local\Temp\ccET1jSp.s 			page 45


 927              	.LVL68:
1526:Generated_Source\PSoC4/CyLib.c ****             regTmp |= ((uint32) (aTrim << CY_SYS_CLK_ECO_TRIM0_ATRIM_SHIFT) & CY_SYS_CLK_ECO_TRIM0_
 928              		.loc 1 1526 0
 929 0020 A900     		lsls	r1, r5, #2
 930 0022 1C25     		movs	r5, #28
 931              	.LVL69:
 932 0024 0D40     		ands	r5, r1
 933 0026 3D43     		orrs	r5, r7
 934              	.LVL70:
1527:Generated_Source\PSoC4/CyLib.c ****             CY_SYS_CLK_ECO_TRIM0_REG = regTmp;
 935              		.loc 1 1527 0
 936 0028 1560     		str	r5, [r2]
1528:Generated_Source\PSoC4/CyLib.c **** 
1529:Generated_Source\PSoC4/CyLib.c ****             regTmp  = CY_SYS_CLK_ECO_TRIM1_REG & ~(CY_SYS_CLK_ECO_TRIM1_FTRIM_MASK |
 937              		.loc 1 1529 0
 938 002a 0C4A     		ldr	r2, .L76+4
 939 002c 1368     		ldr	r3, [r2]
 940 002e 3F21     		movs	r1, #63
 941 0030 8B43     		bics	r3, r1
 942              	.LVL71:
1530:Generated_Source\PSoC4/CyLib.c ****                                                    CY_SYS_CLK_ECO_TRIM1_RTRIM_MASK |
1531:Generated_Source\PSoC4/CyLib.c ****                                                    CY_SYS_CLK_ECO_TRIM1_GTRIM_MASK);
1532:Generated_Source\PSoC4/CyLib.c ****             regTmp |= ((uint32) (fTrim << CY_SYS_CLK_ECO_TRIM1_FTRIM_SHIFT) & CY_SYS_CLK_ECO_TRIM1_
 943              		.loc 1 1532 0
 944 0032 2640     		ands	r6, r4
 945              	.LVL72:
 946 0034 3343     		orrs	r3, r6
 947              	.LVL73:
1533:Generated_Source\PSoC4/CyLib.c ****             regTmp |= ((uint32) (rTrim << CY_SYS_CLK_ECO_TRIM1_RTRIM_SHIFT) & CY_SYS_CLK_ECO_TRIM1_
 948              		.loc 1 1533 0
 949 0036 4146     		mov	r1, r8
 950 0038 8900     		lsls	r1, r1, #2
 951 003a 0934     		adds	r4, r4, #9
 952 003c 0C40     		ands	r4, r1
 953 003e 1C43     		orrs	r4, r3
 954              	.LVL74:
1534:Generated_Source\PSoC4/CyLib.c ****             regTmp |= ((uint32) (gTrim << CY_SYS_CLK_ECO_TRIM1_GTRIM_SHIFT) & CY_SYS_CLK_ECO_TRIM1_
 955              		.loc 1 1534 0
 956 0040 069B     		ldr	r3, [sp, #24]
 957 0042 1901     		lsls	r1, r3, #4
 958 0044 3023     		movs	r3, #48
 959 0046 1940     		ands	r1, r3
 960 0048 2300     		movs	r3, r4
 961 004a 0B43     		orrs	r3, r1
 962              	.LVL75:
1535:Generated_Source\PSoC4/CyLib.c **** 
1536:Generated_Source\PSoC4/CyLib.c ****             CY_SYS_CLK_ECO_TRIM1_REG = regTmp;
 963              		.loc 1 1536 0
 964 004c 1360     		str	r3, [r2]
1537:Generated_Source\PSoC4/CyLib.c **** 
1538:Generated_Source\PSoC4/CyLib.c ****             CyExitCriticalSection(interruptState);
 965              		.loc 1 1538 0
 966 004e FFF7FEFF 		bl	CyExitCriticalSection
 967              	.LVL76:
1539:Generated_Source\PSoC4/CyLib.c ****         }
 968              		.loc 1 1539 0
 969              		@ sp needed
ARM GAS  C:\Users\rolf\AppData\Local\Temp\ccET1jSp.s 			page 46


 970              	.LVL77:
 971 0052 04BC     		pop	{r2}
 972 0054 9046     		mov	r8, r2
 973 0056 F0BD     		pop	{r4, r5, r6, r7, pc}
 974              	.L77:
 975              		.align	2
 976              	.L76:
 977 0058 0CFF0C40 		.word	1074593548
 978 005c 10FF0C40 		.word	1074593552
 979              		.cfi_endproc
 980              	.LFE19:
 981              		.size	CySysClkConfigureEcoTrim, .-CySysClkConfigureEcoTrim
 982              		.global	__aeabi_uidiv
 983              		.section	.text.CySysClkConfigureEcoDrive,"ax",%progbits
 984              		.align	2
 985              		.global	CySysClkConfigureEcoDrive
 986              		.code	16
 987              		.thumb_func
 988              		.type	CySysClkConfigureEcoDrive, %function
 989              	CySysClkConfigureEcoDrive:
 990              	.LFB20:
1540:Generated_Source\PSoC4/CyLib.c **** 
1541:Generated_Source\PSoC4/CyLib.c **** 
1542:Generated_Source\PSoC4/CyLib.c ****         /*******************************************************************************
1543:Generated_Source\PSoC4/CyLib.c ****         * Function Name: CySysClkConfigureEcoDrive
1544:Generated_Source\PSoC4/CyLib.c ****         ****************************************************************************//**
1545:Generated_Source\PSoC4/CyLib.c ****         *
1546:Generated_Source\PSoC4/CyLib.c ****         * Selects trim setting values for ECO based on crystal parameters. Use care
1547:Generated_Source\PSoC4/CyLib.c ****         * when setting the driveLevel parameter because driving a crystal beyond its
1548:Generated_Source\PSoC4/CyLib.c ****         * rated limit can permanently damage the crystal.
1549:Generated_Source\PSoC4/CyLib.c ****         *
1550:Generated_Source\PSoC4/CyLib.c ****         * This API is available only for PSoC 4200L / 4100S / 4500 with ECO
1551:Generated_Source\PSoC4/CyLib.c ****         * devices only.
1552:Generated_Source\PSoC4/CyLib.c ****         *
1553:Generated_Source\PSoC4/CyLib.c ****         * \param freq Frequency of the crystal in kHz.
1554:Generated_Source\PSoC4/CyLib.c ****         * \param cLoad Crystal load capacitance in pF.
1555:Generated_Source\PSoC4/CyLib.c ****         * \param esr Equivalent series resistance of the crystal in ohm.
1556:Generated_Source\PSoC4/CyLib.c ****         *  maxAmplitude: maximum amplitude level in mV. Calculate as
1557:Generated_Source\PSoC4/CyLib.c ****         *  ((sqrt(driveLevel in uW / 2 / esr))/(3.14 * freq * cLoad)) * 10^9.
1558:Generated_Source\PSoC4/CyLib.c ****         *
1559:Generated_Source\PSoC4/CyLib.c ****         *  The Automatic Gain Control (AGC) is disabled when the specified maximum
1560:Generated_Source\PSoC4/CyLib.c ****         *  amplitude level equals or above 2. In this case the amplitude is not
1561:Generated_Source\PSoC4/CyLib.c ****         *  explicitly controlled and will grow until it saturates to the supply rail
1562:Generated_Source\PSoC4/CyLib.c ****         *  (1.8V nom). WARNING: use care when disabling AGC because driving a crystal
1563:Generated_Source\PSoC4/CyLib.c ****         *  beyond its rated limit can permanently damage the crystal.
1564:Generated_Source\PSoC4/CyLib.c ****         *
1565:Generated_Source\PSoC4/CyLib.c ****         * \return \ref CYRET_SUCCESS ECO configuration completed successfully.
1566:Generated_Source\PSoC4/CyLib.c ****         * \return \ref CYRET_BAD_PARAM One or more invalid parameters.
1567:Generated_Source\PSoC4/CyLib.c ****         *
1568:Generated_Source\PSoC4/CyLib.c ****         *******************************************************************************/
1569:Generated_Source\PSoC4/CyLib.c ****         cystatus CySysClkConfigureEcoDrive(uint32 freq, uint32 cLoad, uint32 esr, uint32 maxAmplitu
1570:Generated_Source\PSoC4/CyLib.c ****         {
 991              		.loc 1 1570 0
 992              		.cfi_startproc
 993              		@ args = 0, pretend = 0, frame = 8
 994              		@ frame_needed = 0, uses_anonymous_args = 0
 995              	.LVL78:
ARM GAS  C:\Users\rolf\AppData\Local\Temp\ccET1jSp.s 			page 47


 996 0000 F0B5     		push	{r4, r5, r6, r7, lr}
 997              		.cfi_def_cfa_offset 20
 998              		.cfi_offset 4, -20
 999              		.cfi_offset 5, -16
 1000              		.cfi_offset 6, -12
 1001              		.cfi_offset 7, -8
 1002              		.cfi_offset 14, -4
 1003 0002 5746     		mov	r7, r10
 1004 0004 80B4     		push	{r7}
 1005              		.cfi_def_cfa_offset 24
 1006              		.cfi_offset 10, -24
 1007 0006 84B0     		sub	sp, sp, #16
 1008              		.cfi_def_cfa_offset 40
 1009 0008 0600     		movs	r6, r0
 1010 000a 0C00     		movs	r4, r1
 1011 000c 1500     		movs	r5, r2
 1012 000e 1F00     		movs	r7, r3
 1013              	.LVL79:
1571:Generated_Source\PSoC4/CyLib.c ****             cystatus returnStatus = CYRET_SUCCESS;
1572:Generated_Source\PSoC4/CyLib.c **** 
1573:Generated_Source\PSoC4/CyLib.c ****             uint32 wDTrim;
1574:Generated_Source\PSoC4/CyLib.c ****             uint32 aTrim;
1575:Generated_Source\PSoC4/CyLib.c ****             uint32 fTrim;
1576:Generated_Source\PSoC4/CyLib.c ****             uint32 rTrim;
1577:Generated_Source\PSoC4/CyLib.c ****             uint32 gTrim;
1578:Generated_Source\PSoC4/CyLib.c **** 
1579:Generated_Source\PSoC4/CyLib.c ****             uint32 gmMin;
1580:Generated_Source\PSoC4/CyLib.c **** 
1581:Generated_Source\PSoC4/CyLib.c **** 
1582:Generated_Source\PSoC4/CyLib.c ****             if ((maxAmplitude < CY_SYS_CLK_ECO_MAX_AMPL_MIN_mV) ||
 1014              		.loc 1 1582 0
 1015 0010 F423     		movs	r3, #244
 1016              	.LVL80:
 1017 0012 FF33     		adds	r3, r3, #255
 1018 0014 9F42     		cmp	r7, r3
 1019 0016 00D8     		bhi	.LCB913
 1020 0018 86E0     		b	.L85	@long jump
 1021              	.LCB913:
 1022              		.loc 1 1582 0 is_stmt 0 discriminator 1
 1023 001a 484B     		ldr	r3, .L101
 1024 001c 9842     		cmp	r0, r3
 1025 001e 00D8     		bhi	.LCB916
 1026 0020 84E0     		b	.L86	@long jump
 1027              	.LCB916:
1583:Generated_Source\PSoC4/CyLib.c ****                 (freq < CY_SYS_CLK_ECO_FREQ_KHZ_MIN) || (freq > CY_SYS_CLK_ECO_FREQ_KHZ_MAX))
 1028              		.loc 1 1583 0 is_stmt 1
 1029 0022 474B     		ldr	r3, .L101+4
 1030 0024 9842     		cmp	r0, r3
 1031 0026 00D9     		bls	.LCB919
 1032 0028 82E0     		b	.L87	@long jump
 1033              	.LCB919:
1584:Generated_Source\PSoC4/CyLib.c ****             {
1585:Generated_Source\PSoC4/CyLib.c ****                 returnStatus = CYRET_BAD_PARAM;
1586:Generated_Source\PSoC4/CyLib.c ****             }
1587:Generated_Source\PSoC4/CyLib.c ****             else
1588:Generated_Source\PSoC4/CyLib.c ****             {
1589:Generated_Source\PSoC4/CyLib.c ****                 /* Calculate amplitude trim */
ARM GAS  C:\Users\rolf\AppData\Local\Temp\ccET1jSp.s 			page 48


1590:Generated_Source\PSoC4/CyLib.c ****                 aTrim = (maxAmplitude < CY_SYS_CLK_ECO_TRIM_BOUNDARY) ? ((maxAmplitude/100u) - 4u) 
1591:Generated_Source\PSoC4/CyLib.c **** 
1592:Generated_Source\PSoC4/CyLib.c ****                 if (maxAmplitude < CY_SYS_CLK_ECO_AMPL_FOR_ATRIM0)
 1034              		.loc 1 1592 0 discriminator 4
 1035 002a 464B     		ldr	r3, .L101+8
 1036 002c 9F42     		cmp	r7, r3
 1037 002e 14D9     		bls	.L88
1593:Generated_Source\PSoC4/CyLib.c ****                 {
1594:Generated_Source\PSoC4/CyLib.c ****                     aTrim = CY_SYS_CLK_ECO_ATRIM0;
1595:Generated_Source\PSoC4/CyLib.c ****                 }
1596:Generated_Source\PSoC4/CyLib.c ****                 else if (maxAmplitude < CY_SYS_CLK_ECO_AMPL_FOR_ATRIM1)
 1038              		.loc 1 1596 0
 1039 0030 454B     		ldr	r3, .L101+12
 1040 0032 9F42     		cmp	r7, r3
 1041 0034 14D9     		bls	.L89
1597:Generated_Source\PSoC4/CyLib.c ****                 {
1598:Generated_Source\PSoC4/CyLib.c ****                     aTrim = CY_SYS_CLK_ECO_ATRIM1;
1599:Generated_Source\PSoC4/CyLib.c ****                 }
1600:Generated_Source\PSoC4/CyLib.c ****                 else if (maxAmplitude < CY_SYS_CLK_ECO_AMPL_FOR_ATRIM2)
 1042              		.loc 1 1600 0
 1043 0036 454B     		ldr	r3, .L101+16
 1044 0038 9F42     		cmp	r7, r3
 1045 003a 14D9     		bls	.L90
1601:Generated_Source\PSoC4/CyLib.c ****                 {
1602:Generated_Source\PSoC4/CyLib.c ****                     aTrim = CY_SYS_CLK_ECO_ATRIM2;
1603:Generated_Source\PSoC4/CyLib.c ****                 }
1604:Generated_Source\PSoC4/CyLib.c ****                 else if (maxAmplitude < CY_SYS_CLK_ECO_AMPL_FOR_ATRIM3)
 1046              		.loc 1 1604 0
 1047 003c 444B     		ldr	r3, .L101+20
 1048 003e 9F42     		cmp	r7, r3
 1049 0040 14D9     		bls	.L91
1605:Generated_Source\PSoC4/CyLib.c ****                 {
1606:Generated_Source\PSoC4/CyLib.c ****                     aTrim = CY_SYS_CLK_ECO_ATRIM3;
1607:Generated_Source\PSoC4/CyLib.c ****                 }
1608:Generated_Source\PSoC4/CyLib.c ****                 else if (maxAmplitude < CY_SYS_CLK_ECO_AMPL_FOR_ATRIM4)
 1050              		.loc 1 1608 0
 1051 0042 7D33     		adds	r3, r3, #125
 1052 0044 9F42     		cmp	r7, r3
 1053 0046 14D9     		bls	.L92
1609:Generated_Source\PSoC4/CyLib.c ****                 {
1610:Generated_Source\PSoC4/CyLib.c ****                     aTrim = CY_SYS_CLK_ECO_ATRIM4;
1611:Generated_Source\PSoC4/CyLib.c ****                 }
1612:Generated_Source\PSoC4/CyLib.c ****                 else if (maxAmplitude < CY_SYS_CLK_ECO_AMPL_FOR_ATRIM5)
 1054              		.loc 1 1612 0
 1055 0048 424B     		ldr	r3, .L101+24
 1056 004a 9F42     		cmp	r7, r3
 1057 004c 14D9     		bls	.L93
1613:Generated_Source\PSoC4/CyLib.c ****                 {
1614:Generated_Source\PSoC4/CyLib.c ****                     aTrim = CY_SYS_CLK_ECO_ATRIM5;
1615:Generated_Source\PSoC4/CyLib.c ****                 }
1616:Generated_Source\PSoC4/CyLib.c ****                 else if (maxAmplitude < CY_SYS_CLK_ECO_AMPL_FOR_ATRIM6)
 1058              		.loc 1 1616 0
 1059 004e 424B     		ldr	r3, .L101+28
 1060 0050 9F42     		cmp	r7, r3
 1061 0052 14D8     		bhi	.L94
1617:Generated_Source\PSoC4/CyLib.c ****                 {
1618:Generated_Source\PSoC4/CyLib.c ****                     aTrim = CY_SYS_CLK_ECO_ATRIM6;
ARM GAS  C:\Users\rolf\AppData\Local\Temp\ccET1jSp.s 			page 49


 1062              		.loc 1 1618 0
 1063 0054 0623     		movs	r3, #6
 1064 0056 0393     		str	r3, [sp, #12]
 1065 0058 13E0     		b	.L80
 1066              	.L88:
1594:Generated_Source\PSoC4/CyLib.c ****                 }
 1067              		.loc 1 1594 0
 1068 005a 0023     		movs	r3, #0
 1069 005c 0393     		str	r3, [sp, #12]
 1070 005e 10E0     		b	.L80
 1071              	.L89:
1598:Generated_Source\PSoC4/CyLib.c ****                 }
 1072              		.loc 1 1598 0
 1073 0060 0123     		movs	r3, #1
 1074 0062 0393     		str	r3, [sp, #12]
 1075 0064 0DE0     		b	.L80
 1076              	.L90:
1602:Generated_Source\PSoC4/CyLib.c ****                 }
 1077              		.loc 1 1602 0
 1078 0066 0223     		movs	r3, #2
 1079 0068 0393     		str	r3, [sp, #12]
 1080 006a 0AE0     		b	.L80
 1081              	.L91:
1606:Generated_Source\PSoC4/CyLib.c ****                 }
 1082              		.loc 1 1606 0
 1083 006c 0323     		movs	r3, #3
 1084 006e 0393     		str	r3, [sp, #12]
 1085 0070 07E0     		b	.L80
 1086              	.L92:
1610:Generated_Source\PSoC4/CyLib.c ****                 }
 1087              		.loc 1 1610 0
 1088 0072 0423     		movs	r3, #4
 1089 0074 0393     		str	r3, [sp, #12]
 1090 0076 04E0     		b	.L80
 1091              	.L93:
1614:Generated_Source\PSoC4/CyLib.c ****                 }
 1092              		.loc 1 1614 0
 1093 0078 0523     		movs	r3, #5
 1094 007a 0393     		str	r3, [sp, #12]
 1095 007c 01E0     		b	.L80
 1096              	.L94:
1619:Generated_Source\PSoC4/CyLib.c ****                 }
1620:Generated_Source\PSoC4/CyLib.c ****                 else
1621:Generated_Source\PSoC4/CyLib.c ****                 {
1622:Generated_Source\PSoC4/CyLib.c ****                     aTrim = CY_SYS_CLK_ECO_ATRIM7;
 1097              		.loc 1 1622 0
 1098 007e 0723     		movs	r3, #7
 1099 0080 0393     		str	r3, [sp, #12]
 1100              	.L80:
 1101              	.LVL81:
1623:Generated_Source\PSoC4/CyLib.c ****                 }
1624:Generated_Source\PSoC4/CyLib.c **** 
1625:Generated_Source\PSoC4/CyLib.c ****                 /* Calculate Watchdog trim. */
1626:Generated_Source\PSoC4/CyLib.c ****                 wDTrim = (maxAmplitude < CY_SYS_CLK_ECO_TRIM_BOUNDARY) ? ((maxAmplitude/200u) - 2u)
 1102              		.loc 1 1626 0
 1103 0082 364B     		ldr	r3, .L101+32
 1104 0084 9F42     		cmp	r7, r3
ARM GAS  C:\Users\rolf\AppData\Local\Temp\ccET1jSp.s 			page 50


 1105 0086 06D8     		bhi	.L95
 1106              		.loc 1 1626 0 is_stmt 0 discriminator 1
 1107 0088 C821     		movs	r1, #200
 1108              	.LVL82:
 1109 008a 3800     		movs	r0, r7
 1110              	.LVL83:
 1111 008c FFF7FEFF 		bl	__aeabi_uidiv
 1112              	.LVL84:
 1113 0090 831E     		subs	r3, r0, #2
 1114 0092 0293     		str	r3, [sp, #8]
 1115 0094 01E0     		b	.L81
 1116              	.LVL85:
 1117              	.L95:
 1118              		.loc 1 1626 0
 1119 0096 0323     		movs	r3, #3
 1120 0098 0293     		str	r3, [sp, #8]
 1121              	.LVL86:
 1122              	.L81:
1627:Generated_Source\PSoC4/CyLib.c **** 
1628:Generated_Source\PSoC4/CyLib.c ****                 /* Calculate amplifier gain trim. */
1629:Generated_Source\PSoC4/CyLib.c ****                 gmMin = (uint32) (((((CY_SYS_CLK_ECO_GMMIN_COEFFICIENT * freq * cLoad) / 1000) * ((
 1123              		.loc 1 1629 0 is_stmt 1 discriminator 4
 1124 009a 7443     		muls	r4, r6
 1125              	.LVL87:
 1126 009c A000     		lsls	r0, r4, #2
 1127 009e 0019     		adds	r0, r0, r4
 1128 00a0 0301     		lsls	r3, r0, #4
 1129 00a2 181B     		subs	r0, r3, r4
 1130 00a4 FA21     		movs	r1, #250
 1131 00a6 8900     		lsls	r1, r1, #2
 1132 00a8 FFF7FEFF 		bl	__aeabi_uidiv
 1133              	.LVL88:
 1134 00ac 8246     		mov	r10, r0
 1135 00ae 2800     		movs	r0, r5
 1136 00b0 6043     		muls	r0, r4
 1137 00b2 FA21     		movs	r1, #250
 1138 00b4 8900     		lsls	r1, r1, #2
 1139 00b6 FFF7FEFF 		bl	__aeabi_uidiv
 1140              	.LVL89:
 1141 00ba 5346     		mov	r3, r10
 1142 00bc 5843     		muls	r0, r3
 1143 00be 2849     		ldr	r1, .L101+36
 1144 00c0 FFF7FEFF 		bl	__aeabi_uidiv
 1145              	.LVL90:
1630:Generated_Source\PSoC4/CyLib.c ****                 if (gmMin > 3u)
 1146              		.loc 1 1630 0 discriminator 4
 1147 00c4 0328     		cmp	r0, #3
 1148 00c6 07D8     		bhi	.L96
1631:Generated_Source\PSoC4/CyLib.c ****                 {
1632:Generated_Source\PSoC4/CyLib.c ****                     returnStatus = CYRET_BAD_PARAM;
1633:Generated_Source\PSoC4/CyLib.c ****                     gTrim = 0u;
1634:Generated_Source\PSoC4/CyLib.c ****                 }
1635:Generated_Source\PSoC4/CyLib.c ****                 else if (gmMin > 1u)
 1149              		.loc 1 1635 0
 1150 00c8 0128     		cmp	r0, #1
 1151 00ca 08D8     		bhi	.L97
1636:Generated_Source\PSoC4/CyLib.c ****                 {
ARM GAS  C:\Users\rolf\AppData\Local\Temp\ccET1jSp.s 			page 51


1637:Generated_Source\PSoC4/CyLib.c ****                     gTrim = gmMin;
1638:Generated_Source\PSoC4/CyLib.c ****                 }
1639:Generated_Source\PSoC4/CyLib.c ****                 else
1640:Generated_Source\PSoC4/CyLib.c ****                 {
1641:Generated_Source\PSoC4/CyLib.c ****                     gTrim = (gmMin == 1u) ? 0u : 1u;
 1152              		.loc 1 1641 0
 1153 00cc 0138     		subs	r0, r0, #1
 1154              	.LVL91:
 1155 00ce 431E     		subs	r3, r0, #1
 1156 00d0 9841     		sbcs	r0, r0, r3
 1157              	.LVL92:
 1158 00d2 C0B2     		uxtb	r0, r0
 1159              	.LVL93:
1571:Generated_Source\PSoC4/CyLib.c **** 
 1160              		.loc 1 1571 0
 1161 00d4 0024     		movs	r4, #0
 1162 00d6 03E0     		b	.L82
 1163              	.LVL94:
 1164              	.L96:
1633:Generated_Source\PSoC4/CyLib.c ****                 }
 1165              		.loc 1 1633 0
 1166 00d8 0020     		movs	r0, #0
 1167              	.LVL95:
1632:Generated_Source\PSoC4/CyLib.c ****                     gTrim = 0u;
 1168              		.loc 1 1632 0
 1169 00da 0124     		movs	r4, #1
 1170 00dc 00E0     		b	.L82
 1171              	.LVL96:
 1172              	.L97:
1571:Generated_Source\PSoC4/CyLib.c **** 
 1173              		.loc 1 1571 0
 1174 00de 0024     		movs	r4, #0
 1175              	.LVL97:
 1176              	.L82:
1642:Generated_Source\PSoC4/CyLib.c ****                 }
1643:Generated_Source\PSoC4/CyLib.c **** 
1644:Generated_Source\PSoC4/CyLib.c ****                 /* Calculate feedback resistor trim */
1645:Generated_Source\PSoC4/CyLib.c ****                 if (freq > CY_SYS_CLK_ECO_FREQ_FOR_FTRIM0)
 1177              		.loc 1 1645 0
 1178 00e0 204B     		ldr	r3, .L101+40
 1179 00e2 9E42     		cmp	r6, r3
 1180 00e4 07D8     		bhi	.L98
1646:Generated_Source\PSoC4/CyLib.c ****                 {
1647:Generated_Source\PSoC4/CyLib.c ****                     rTrim = CY_SYS_CLK_ECO_FTRIM0;
1648:Generated_Source\PSoC4/CyLib.c ****                 }
1649:Generated_Source\PSoC4/CyLib.c ****                 else if (freq > CY_SYS_CLK_ECO_FREQ_FOR_FTRIM1)
 1181              		.loc 1 1649 0
 1182 00e6 204B     		ldr	r3, .L101+44
 1183 00e8 9E42     		cmp	r6, r3
 1184 00ea 06D8     		bhi	.L99
1650:Generated_Source\PSoC4/CyLib.c ****                 {
1651:Generated_Source\PSoC4/CyLib.c ****                     rTrim = CY_SYS_CLK_ECO_FTRIM1;
1652:Generated_Source\PSoC4/CyLib.c ****                 }
1653:Generated_Source\PSoC4/CyLib.c ****                 else if (freq > CY_SYS_CLK_ECO_FREQ_FOR_FTRIM2)
 1185              		.loc 1 1653 0
 1186 00ec 1F4B     		ldr	r3, .L101+48
 1187 00ee 9E42     		cmp	r6, r3
ARM GAS  C:\Users\rolf\AppData\Local\Temp\ccET1jSp.s 			page 52


 1188 00f0 05D9     		bls	.L100
1654:Generated_Source\PSoC4/CyLib.c ****                 {
1655:Generated_Source\PSoC4/CyLib.c ****                     rTrim = CY_SYS_CLK_ECO_FTRIM2;
 1189              		.loc 1 1655 0
 1190 00f2 0222     		movs	r2, #2
 1191 00f4 04E0     		b	.L83
 1192              	.L98:
1647:Generated_Source\PSoC4/CyLib.c ****                 }
 1193              		.loc 1 1647 0
 1194 00f6 0022     		movs	r2, #0
 1195 00f8 02E0     		b	.L83
 1196              	.L99:
1651:Generated_Source\PSoC4/CyLib.c ****                 }
 1197              		.loc 1 1651 0
 1198 00fa 0122     		movs	r2, #1
 1199 00fc 00E0     		b	.L83
 1200              	.L100:
1656:Generated_Source\PSoC4/CyLib.c ****                 }
1657:Generated_Source\PSoC4/CyLib.c ****                 else
1658:Generated_Source\PSoC4/CyLib.c ****                 {
1659:Generated_Source\PSoC4/CyLib.c ****                     rTrim = CY_SYS_CLK_ECO_FTRIM3;
 1201              		.loc 1 1659 0
 1202 00fe 0322     		movs	r2, #3
 1203              	.L83:
 1204              	.LVL98:
1660:Generated_Source\PSoC4/CyLib.c ****                 }
1661:Generated_Source\PSoC4/CyLib.c **** 
1662:Generated_Source\PSoC4/CyLib.c ****                 /* Calculate filter frequency trim */
1663:Generated_Source\PSoC4/CyLib.c ****                 fTrim = rTrim;
1664:Generated_Source\PSoC4/CyLib.c **** 
1665:Generated_Source\PSoC4/CyLib.c ****                 CySysClkConfigureEcoTrim(wDTrim, aTrim, fTrim, rTrim, gTrim);
 1205              		.loc 1 1665 0
 1206 0100 0090     		str	r0, [sp]
 1207 0102 1300     		movs	r3, r2
 1208 0104 0399     		ldr	r1, [sp, #12]
 1209 0106 0298     		ldr	r0, [sp, #8]
 1210              	.LVL99:
 1211 0108 FFF7FEFF 		bl	CySysClkConfigureEcoTrim
 1212              	.LVL100:
1666:Generated_Source\PSoC4/CyLib.c **** 
1667:Generated_Source\PSoC4/CyLib.c ****                 /* Automatic Gain Control (AGC) enable */
1668:Generated_Source\PSoC4/CyLib.c ****                 if (maxAmplitude < 2u)
 1213              		.loc 1 1668 0
 1214 010c 012F     		cmp	r7, #1
 1215 010e 05D8     		bhi	.L84
1669:Generated_Source\PSoC4/CyLib.c ****                 {
1670:Generated_Source\PSoC4/CyLib.c ****                     /* The oscillation amplitude is controlled to the level selected by amplitude t
1671:Generated_Source\PSoC4/CyLib.c ****                     CY_SYS_CLK_ECO_CONFIG_REG |= CY_SYS_CLK_ECO_CONFIG_AGC_EN;
 1216              		.loc 1 1671 0
 1217 0110 174A     		ldr	r2, .L101+52
 1218 0112 1168     		ldr	r1, [r2]
 1219 0114 0223     		movs	r3, #2
 1220 0116 0B43     		orrs	r3, r1
 1221 0118 1360     		str	r3, [r2]
 1222              	.LVL101:
 1223 011a 0AE0     		b	.L79
 1224              	.LVL102:
ARM GAS  C:\Users\rolf\AppData\Local\Temp\ccET1jSp.s 			page 53


 1225              	.L84:
1672:Generated_Source\PSoC4/CyLib.c ****                 }
1673:Generated_Source\PSoC4/CyLib.c ****                 else
1674:Generated_Source\PSoC4/CyLib.c ****                 {
1675:Generated_Source\PSoC4/CyLib.c ****                     /* The amplitude is not explicitly controlled and will grow until it saturates 
1676:Generated_Source\PSoC4/CyLib.c ****                     * supply rail (1.8V nom).
1677:Generated_Source\PSoC4/CyLib.c ****                     */
1678:Generated_Source\PSoC4/CyLib.c ****                     CY_SYS_CLK_ECO_CONFIG_REG &= (uint32) ~CY_SYS_CLK_ECO_CONFIG_AGC_EN;
 1226              		.loc 1 1678 0
 1227 011c 144A     		ldr	r2, .L101+52
 1228 011e 1368     		ldr	r3, [r2]
 1229 0120 0221     		movs	r1, #2
 1230 0122 8B43     		bics	r3, r1
 1231 0124 1360     		str	r3, [r2]
 1232              	.LVL103:
 1233 0126 04E0     		b	.L79
 1234              	.LVL104:
 1235              	.L85:
1585:Generated_Source\PSoC4/CyLib.c ****             }
 1236              		.loc 1 1585 0
 1237 0128 0124     		movs	r4, #1
 1238 012a 02E0     		b	.L79
 1239              	.L86:
 1240 012c 0124     		movs	r4, #1
 1241 012e 00E0     		b	.L79
 1242              	.L87:
 1243 0130 0124     		movs	r4, #1
 1244              	.LVL105:
 1245              	.L79:
1679:Generated_Source\PSoC4/CyLib.c ****                 }
1680:Generated_Source\PSoC4/CyLib.c ****             }
1681:Generated_Source\PSoC4/CyLib.c **** 
1682:Generated_Source\PSoC4/CyLib.c ****             return (returnStatus);
1683:Generated_Source\PSoC4/CyLib.c ****         }
 1246              		.loc 1 1683 0
 1247 0132 2000     		movs	r0, r4
 1248 0134 04B0     		add	sp, sp, #16
 1249              		@ sp needed
 1250              	.LVL106:
 1251              	.LVL107:
 1252              	.LVL108:
 1253              	.LVL109:
 1254 0136 04BC     		pop	{r2}
 1255 0138 9246     		mov	r10, r2
 1256 013a F0BD     		pop	{r4, r5, r6, r7, pc}
 1257              	.L102:
 1258              		.align	2
 1259              	.L101:
 1260 013c 9F0F0000 		.word	3999
 1261 0140 35820000 		.word	33333
 1262 0144 57020000 		.word	599
 1263 0148 BB020000 		.word	699
 1264 014c 1F030000 		.word	799
 1265 0150 83030000 		.word	899
 1266 0154 7D040000 		.word	1149
 1267 0158 FA040000 		.word	1274
 1268 015c AF040000 		.word	1199
ARM GAS  C:\Users\rolf\AppData\Local\Temp\ccET1jSp.s 			page 54


 1269 0160 8074D21A 		.word	450000000
 1270 0164 30750000 		.word	30000
 1271 0168 C05D0000 		.word	24000
 1272 016c 68420000 		.word	17000
 1273 0170 08000C40 		.word	1074528264
 1274              		.cfi_endproc
 1275              	.LFE20:
 1276              		.size	CySysClkConfigureEcoDrive, .-CySysClkConfigureEcoDrive
 1277              		.section	.text.CySysClkPllStop,"ax",%progbits
 1278              		.align	2
 1279              		.global	CySysClkPllStop
 1280              		.code	16
 1281              		.thumb_func
 1282              		.type	CySysClkPllStop, %function
 1283              	CySysClkPllStop:
 1284              	.LFB23:
1684:Generated_Source\PSoC4/CyLib.c **** 
1685:Generated_Source\PSoC4/CyLib.c ****     #endif /* CY_IP_ECO_BLESS */
1686:Generated_Source\PSoC4/CyLib.c **** 
1687:Generated_Source\PSoC4/CyLib.c **** #endif /* (CY_IP_ECO) */
1688:Generated_Source\PSoC4/CyLib.c **** 
1689:Generated_Source\PSoC4/CyLib.c **** 
1690:Generated_Source\PSoC4/CyLib.c **** #if (CY_IP_PLL)
1691:Generated_Source\PSoC4/CyLib.c ****     /*******************************************************************************
1692:Generated_Source\PSoC4/CyLib.c ****     * Function Name: CySysClkPllStart
1693:Generated_Source\PSoC4/CyLib.c ****     ****************************************************************************//**
1694:Generated_Source\PSoC4/CyLib.c ****     *
1695:Generated_Source\PSoC4/CyLib.c ****     * Enables the PLL. Optionally waits for it to become stable. Waits at least
1696:Generated_Source\PSoC4/CyLib.c ****     * 250 us or until it is detected that the PLL is stable.
1697:Generated_Source\PSoC4/CyLib.c ****     *
1698:Generated_Source\PSoC4/CyLib.c ****     * Clears the unlock occurred status bit by calling CySysClkPllGetUnlockStatus(),
1699:Generated_Source\PSoC4/CyLib.c ****     * once the PLL is locked if the wait parameter is 1).
1700:Generated_Source\PSoC4/CyLib.c ****     *
1701:Generated_Source\PSoC4/CyLib.c ****     * This API is available only for PSoC 4200L / 4100S / 4500 with PLL devices.
1702:Generated_Source\PSoC4/CyLib.c ****     *
1703:Generated_Source\PSoC4/CyLib.c ****     * \param PLL:
1704:Generated_Source\PSoC4/CyLib.c ****     * 0   PLL#0
1705:Generated_Source\PSoC4/CyLib.c ****     * 1   PLL#1 (available only for PSoC 4200L)
1706:Generated_Source\PSoC4/CyLib.c ****     *
1707:Generated_Source\PSoC4/CyLib.c ****     * \param wait:
1708:Generated_Source\PSoC4/CyLib.c ****     * 0 - Return immediately after configuration.
1709:Generated_Source\PSoC4/CyLib.c ****     * 1 - Wait for PLL lock or timeout. This API shall use the CyDelayUs() to
1710:Generated_Source\PSoC4/CyLib.c ****     * implement the timeout feature.
1711:Generated_Source\PSoC4/CyLib.c ****     *
1712:Generated_Source\PSoC4/CyLib.c ****     * \return CYRET_SUCCESS Completed successfully.
1713:Generated_Source\PSoC4/CyLib.c ****     * \return CYRET_TIMEOUT The timeout occurred without detecting a stable clock.
1714:Generated_Source\PSoC4/CyLib.c ****     * If the input source of the clock is jittery, then the lock indication may
1715:Generated_Source\PSoC4/CyLib.c ****     * not occur. However, after the timeout has expired, the generated PLL clock can
1716:Generated_Source\PSoC4/CyLib.c ****     * still be used.
1717:Generated_Source\PSoC4/CyLib.c ****     * \return CYRET_BAD_PARAM - Either the PLL or wait parameter is invalid.
1718:Generated_Source\PSoC4/CyLib.c ****     *
1719:Generated_Source\PSoC4/CyLib.c ****     *******************************************************************************/
1720:Generated_Source\PSoC4/CyLib.c ****     cystatus CySysClkPllStart(uint32 pll, uint32 wait)
1721:Generated_Source\PSoC4/CyLib.c ****     {
1722:Generated_Source\PSoC4/CyLib.c ****         uint32 counts = CY_SYS_CLK_PLL_MAX_STARTUP_US;
1723:Generated_Source\PSoC4/CyLib.c ****         uint8  interruptState;
1724:Generated_Source\PSoC4/CyLib.c ****         cystatus returnStatus = CYRET_SUCCESS;
ARM GAS  C:\Users\rolf\AppData\Local\Temp\ccET1jSp.s 			page 55


1725:Generated_Source\PSoC4/CyLib.c **** 
1726:Generated_Source\PSoC4/CyLib.c ****         if((pll < CY_IP_PLL_NR) && (wait <= 1u))
1727:Generated_Source\PSoC4/CyLib.c ****         {
1728:Generated_Source\PSoC4/CyLib.c ****             interruptState = CyEnterCriticalSection();
1729:Generated_Source\PSoC4/CyLib.c **** 
1730:Generated_Source\PSoC4/CyLib.c ****             /* Isolate PLL outputs */
1731:Generated_Source\PSoC4/CyLib.c ****             CY_SYS_CLK_PLL_BASE.pll[pll].config &= (uint32) ~CY_SYS_CLK_PLL_CONFIG_ISOLATE;
1732:Generated_Source\PSoC4/CyLib.c **** 
1733:Generated_Source\PSoC4/CyLib.c ****             /* Enable PLL */
1734:Generated_Source\PSoC4/CyLib.c ****             CY_SYS_CLK_PLL_BASE.pll[pll].config |= CY_SYS_CLK_PLL_CONFIG_ENABLE;
1735:Generated_Source\PSoC4/CyLib.c **** 
1736:Generated_Source\PSoC4/CyLib.c ****             CyExitCriticalSection(interruptState);
1737:Generated_Source\PSoC4/CyLib.c **** 
1738:Generated_Source\PSoC4/CyLib.c ****             /* De-isolate >= CY_SYS_CLK_PLL_MIN_STARTUP_US after PLL enabled */
1739:Generated_Source\PSoC4/CyLib.c ****             CyDelayUs(CY_SYS_CLK_PLL_MIN_STARTUP_US);
1740:Generated_Source\PSoC4/CyLib.c ****             interruptState = CyEnterCriticalSection();
1741:Generated_Source\PSoC4/CyLib.c ****             CY_SYS_CLK_PLL_BASE.pll[pll].config |= CY_SYS_CLK_PLL_CONFIG_ISOLATE;
1742:Generated_Source\PSoC4/CyLib.c ****             CyExitCriticalSection(interruptState);
1743:Generated_Source\PSoC4/CyLib.c **** 
1744:Generated_Source\PSoC4/CyLib.c ****             if(wait != 0u)
1745:Generated_Source\PSoC4/CyLib.c ****             {
1746:Generated_Source\PSoC4/CyLib.c ****                 returnStatus = CYRET_TIMEOUT;
1747:Generated_Source\PSoC4/CyLib.c **** 
1748:Generated_Source\PSoC4/CyLib.c ****                 while(0u != counts)
1749:Generated_Source\PSoC4/CyLib.c ****                 {
1750:Generated_Source\PSoC4/CyLib.c **** 
1751:Generated_Source\PSoC4/CyLib.c ****                     if(0u != CySysClkPllGetLockStatus(pll))
1752:Generated_Source\PSoC4/CyLib.c ****                     {
1753:Generated_Source\PSoC4/CyLib.c ****                         returnStatus = CYRET_SUCCESS;
1754:Generated_Source\PSoC4/CyLib.c ****                         (void) CySysClkPllGetUnlockStatus(pll);
1755:Generated_Source\PSoC4/CyLib.c ****                         break;
1756:Generated_Source\PSoC4/CyLib.c ****                     }
1757:Generated_Source\PSoC4/CyLib.c **** 
1758:Generated_Source\PSoC4/CyLib.c ****                     CyDelayUs(1u);
1759:Generated_Source\PSoC4/CyLib.c ****                     counts--;
1760:Generated_Source\PSoC4/CyLib.c ****                 }
1761:Generated_Source\PSoC4/CyLib.c ****             }
1762:Generated_Source\PSoC4/CyLib.c ****         }
1763:Generated_Source\PSoC4/CyLib.c ****         else
1764:Generated_Source\PSoC4/CyLib.c ****         {
1765:Generated_Source\PSoC4/CyLib.c ****             returnStatus = CYRET_BAD_PARAM;
1766:Generated_Source\PSoC4/CyLib.c ****         }
1767:Generated_Source\PSoC4/CyLib.c **** 
1768:Generated_Source\PSoC4/CyLib.c ****         return (returnStatus);
1769:Generated_Source\PSoC4/CyLib.c ****     }
1770:Generated_Source\PSoC4/CyLib.c **** 
1771:Generated_Source\PSoC4/CyLib.c **** 
1772:Generated_Source\PSoC4/CyLib.c ****     /*******************************************************************************
1773:Generated_Source\PSoC4/CyLib.c ****     * Function Name: CySysClkPllGetLockStatus
1774:Generated_Source\PSoC4/CyLib.c ****     ****************************************************************************//**
1775:Generated_Source\PSoC4/CyLib.c ****     *
1776:Generated_Source\PSoC4/CyLib.c ****     * Returns non-zero if the output of the specified PLL output is locked.
1777:Generated_Source\PSoC4/CyLib.c ****     *
1778:Generated_Source\PSoC4/CyLib.c ****     * This API is available only for PSoC 4200L / 4100S / 4500 with PLL devices.
1779:Generated_Source\PSoC4/CyLib.c ****     *
1780:Generated_Source\PSoC4/CyLib.c ****     * PLL:
1781:Generated_Source\PSoC4/CyLib.c ****     *  0   PLL#0
ARM GAS  C:\Users\rolf\AppData\Local\Temp\ccET1jSp.s 			page 56


1782:Generated_Source\PSoC4/CyLib.c ****     *  1   PLL#1 (available only for PSoC 4200L)
1783:Generated_Source\PSoC4/CyLib.c ****     *
1784:Generated_Source\PSoC4/CyLib.c ****     * \return A non-zero value when the specified PLL is locked.
1785:Generated_Source\PSoC4/CyLib.c ****     *
1786:Generated_Source\PSoC4/CyLib.c ****     *******************************************************************************/
1787:Generated_Source\PSoC4/CyLib.c ****     uint32 CySysClkPllGetLockStatus(uint32 pll)
1788:Generated_Source\PSoC4/CyLib.c ****     {
1789:Generated_Source\PSoC4/CyLib.c ****         uint8  interruptState;
1790:Generated_Source\PSoC4/CyLib.c ****         uint32 returnStatus;
1791:Generated_Source\PSoC4/CyLib.c **** 
1792:Generated_Source\PSoC4/CyLib.c ****         CYASSERT(pll < CY_IP_PLL_NR);
1793:Generated_Source\PSoC4/CyLib.c **** 
1794:Generated_Source\PSoC4/CyLib.c ****         interruptState = CyEnterCriticalSection();
1795:Generated_Source\PSoC4/CyLib.c **** 
1796:Generated_Source\PSoC4/CyLib.c ****         /* PLL is locked if reported so for two consecutive read. */
1797:Generated_Source\PSoC4/CyLib.c ****         returnStatus = CY_SYS_CLK_PLL_BASE.pll[pll].status & CY_SYS_CLK_PLL_STATUS_LOCKED;
1798:Generated_Source\PSoC4/CyLib.c ****         if(0u != returnStatus)
1799:Generated_Source\PSoC4/CyLib.c ****         {
1800:Generated_Source\PSoC4/CyLib.c ****             returnStatus = CY_SYS_CLK_PLL_BASE.pll[pll].status & CY_SYS_CLK_PLL_STATUS_LOCKED;
1801:Generated_Source\PSoC4/CyLib.c ****         }
1802:Generated_Source\PSoC4/CyLib.c **** 
1803:Generated_Source\PSoC4/CyLib.c ****         CyExitCriticalSection(interruptState);
1804:Generated_Source\PSoC4/CyLib.c **** 
1805:Generated_Source\PSoC4/CyLib.c ****         return (returnStatus);
1806:Generated_Source\PSoC4/CyLib.c ****     }
1807:Generated_Source\PSoC4/CyLib.c **** 
1808:Generated_Source\PSoC4/CyLib.c ****     /*******************************************************************************
1809:Generated_Source\PSoC4/CyLib.c ****     * Function Name: CySysClkPllStop
1810:Generated_Source\PSoC4/CyLib.c ****     ****************************************************************************//**
1811:Generated_Source\PSoC4/CyLib.c ****     *
1812:Generated_Source\PSoC4/CyLib.c ****     * Disables the PLL.
1813:Generated_Source\PSoC4/CyLib.c ****     *
1814:Generated_Source\PSoC4/CyLib.c ****     * Ensures that either PLL is not the source of HFCLK before it is disabled,
1815:Generated_Source\PSoC4/CyLib.c ****     * otherwise, the CPU will halt.
1816:Generated_Source\PSoC4/CyLib.c ****     *
1817:Generated_Source\PSoC4/CyLib.c ****     * This API is available only for PSoC 4200L / 4100S / 4500 with PLL devices.
1818:Generated_Source\PSoC4/CyLib.c ****     *
1819:Generated_Source\PSoC4/CyLib.c ****     * PLL:
1820:Generated_Source\PSoC4/CyLib.c ****     *  0   PLL#0
1821:Generated_Source\PSoC4/CyLib.c ****     *  1   PLL#1 (available only for PSoC 4200L)
1822:Generated_Source\PSoC4/CyLib.c ****     *
1823:Generated_Source\PSoC4/CyLib.c ****     *******************************************************************************/
1824:Generated_Source\PSoC4/CyLib.c ****     void CySysClkPllStop(uint32 pll)
1825:Generated_Source\PSoC4/CyLib.c ****     {
 1285              		.loc 1 1825 0
 1286              		.cfi_startproc
 1287              		@ args = 0, pretend = 0, frame = 0
 1288              		@ frame_needed = 0, uses_anonymous_args = 0
 1289              	.LVL110:
 1290 0000 70B5     		push	{r4, r5, r6, lr}
 1291              		.cfi_def_cfa_offset 16
 1292              		.cfi_offset 4, -16
 1293              		.cfi_offset 5, -12
 1294              		.cfi_offset 6, -8
 1295              		.cfi_offset 14, -4
 1296 0002 0400     		movs	r4, r0
1826:Generated_Source\PSoC4/CyLib.c ****         uint8  interruptState;
ARM GAS  C:\Users\rolf\AppData\Local\Temp\ccET1jSp.s 			page 57


1827:Generated_Source\PSoC4/CyLib.c **** 
1828:Generated_Source\PSoC4/CyLib.c ****         if (pll < CY_IP_PLL_NR)
 1297              		.loc 1 1828 0
 1298 0004 0128     		cmp	r0, #1
 1299 0006 0CD8     		bhi	.L103
1829:Generated_Source\PSoC4/CyLib.c ****         {
1830:Generated_Source\PSoC4/CyLib.c ****             interruptState = CyEnterCriticalSection();
 1300              		.loc 1 1830 0
 1301 0008 FFF7FEFF 		bl	CyEnterCriticalSection
 1302              	.LVL111:
1831:Generated_Source\PSoC4/CyLib.c ****             CY_SYS_CLK_PLL_BASE.pll[pll].config &= (uint32) ~(CY_SYS_CLK_PLL_CONFIG_ISOLATE | CY_SY
 1303              		.loc 1 1831 0
 1304 000c 054A     		ldr	r2, .L105
 1305 000e 6100     		lsls	r1, r4, #1
 1306 0010 0D19     		adds	r5, r1, r4
 1307 0012 AB00     		lsls	r3, r5, #2
 1308 0014 9B58     		ldr	r3, [r3, r2]
 1309 0016 9B00     		lsls	r3, r3, #2
 1310 0018 9B08     		lsrs	r3, r3, #2
 1311 001a A900     		lsls	r1, r5, #2
 1312 001c 8B50     		str	r3, [r1, r2]
1832:Generated_Source\PSoC4/CyLib.c ****             CyExitCriticalSection(interruptState);
 1313              		.loc 1 1832 0
 1314 001e FFF7FEFF 		bl	CyExitCriticalSection
 1315              	.LVL112:
 1316              	.L103:
1833:Generated_Source\PSoC4/CyLib.c ****         }
1834:Generated_Source\PSoC4/CyLib.c ****     }
 1317              		.loc 1 1834 0
 1318              		@ sp needed
 1319              	.LVL113:
 1320 0022 70BD     		pop	{r4, r5, r6, pc}
 1321              	.L106:
 1322              		.align	2
 1323              	.L105:
 1324 0024 14000C40 		.word	1074528276
 1325              		.cfi_endproc
 1326              	.LFE23:
 1327              		.size	CySysClkPllStop, .-CySysClkPllStop
 1328              		.section	.text.CySysClkPllSetBypassMode,"ax",%progbits
 1329              		.align	2
 1330              		.global	CySysClkPllSetBypassMode
 1331              		.code	16
 1332              		.thumb_func
 1333              		.type	CySysClkPllSetBypassMode, %function
 1334              	CySysClkPllSetBypassMode:
 1335              	.LFB25:
1835:Generated_Source\PSoC4/CyLib.c **** 
1836:Generated_Source\PSoC4/CyLib.c **** 
1837:Generated_Source\PSoC4/CyLib.c ****     /*******************************************************************************
1838:Generated_Source\PSoC4/CyLib.c ****     * Function Name: CySysClkPllSetPQ
1839:Generated_Source\PSoC4/CyLib.c ****     ****************************************************************************//**
1840:Generated_Source\PSoC4/CyLib.c ****     *
1841:Generated_Source\PSoC4/CyLib.c ****     * Sets feedback (P) and reference the (Q) divider value. This API also sets the
1842:Generated_Source\PSoC4/CyLib.c ****     * programmable charge pump current value. Note that the PLL has to be disabled
1843:Generated_Source\PSoC4/CyLib.c ****     * before calling this API. If this function is called while any PLL is sourcing,
1844:Generated_Source\PSoC4/CyLib.c ****     * the SYSCLK will return an error.
ARM GAS  C:\Users\rolf\AppData\Local\Temp\ccET1jSp.s 			page 58


1845:Generated_Source\PSoC4/CyLib.c ****     *
1846:Generated_Source\PSoC4/CyLib.c ****     * The PLL must not be the system clock source when calling this function. The
1847:Generated_Source\PSoC4/CyLib.c ****     * PLL output will glitch during this function call.
1848:Generated_Source\PSoC4/CyLib.c ****     *
1849:Generated_Source\PSoC4/CyLib.c ****     * This API is available only for PSoC 4200L / 4100S / 4500 with PLL devices.
1850:Generated_Source\PSoC4/CyLib.c ****     *
1851:Generated_Source\PSoC4/CyLib.c ****     * \param PLL:
1852:Generated_Source\PSoC4/CyLib.c ****     *  0   PLL#0
1853:Generated_Source\PSoC4/CyLib.c ****     *  1   PLL#1 (available only for PSoC 4200L)
1854:Generated_Source\PSoC4/CyLib.c ****     *
1855:Generated_Source\PSoC4/CyLib.c ****     * \param feedback The P divider. Range 4 - 259. Control bits for the feedback
1856:Generated_Source\PSoC4/CyLib.c ****     * divider.
1857:Generated_Source\PSoC4/CyLib.c ****     *
1858:Generated_Source\PSoC4/CyLib.c ****     * \param reference The Q divider. Range 1 - 64. Divide by the reference.
1859:Generated_Source\PSoC4/CyLib.c ****     *
1860:Generated_Source\PSoC4/CyLib.c ****     * \param current Charge the pump current in uA. The 2 uA for output frequencies
1861:Generated_Source\PSoC4/CyLib.c ****     * of 67 MHz or less, and 3 uA for higher output frequencies. The default
1862:Generated_Source\PSoC4/CyLib.c ****     * value is 2 uA.
1863:Generated_Source\PSoC4/CyLib.c ****     *
1864:Generated_Source\PSoC4/CyLib.c ****     * \return CYRET_SUCCESS Completed successfully.
1865:Generated_Source\PSoC4/CyLib.c ****     * \return CYRET_BAD_PARAM The parameters are out of range or the specified PLL
1866:Generated_Source\PSoC4/CyLib.c ****     * sources the system clock.
1867:Generated_Source\PSoC4/CyLib.c ****     *
1868:Generated_Source\PSoC4/CyLib.c ****     *******************************************************************************/
1869:Generated_Source\PSoC4/CyLib.c ****     cystatus CySysClkPllSetPQ(uint32 pll, uint32 feedback, uint32 reference, uint32 current)
1870:Generated_Source\PSoC4/CyLib.c ****     {
1871:Generated_Source\PSoC4/CyLib.c ****         uint32   regTmp;
1872:Generated_Source\PSoC4/CyLib.c ****         cystatus tmp;
1873:Generated_Source\PSoC4/CyLib.c ****         uint8    interruptState;
1874:Generated_Source\PSoC4/CyLib.c ****         cystatus returnStatus = CYRET_BAD_PARAM;
1875:Generated_Source\PSoC4/CyLib.c **** 
1876:Generated_Source\PSoC4/CyLib.c ****         interruptState = CyEnterCriticalSection();
1877:Generated_Source\PSoC4/CyLib.c **** 
1878:Generated_Source\PSoC4/CyLib.c ****         tmp = CySysClkPllConfigChangeAllowed(pll);
1879:Generated_Source\PSoC4/CyLib.c **** 
1880:Generated_Source\PSoC4/CyLib.c ****         if ((pll < CY_IP_PLL_NR) &&
1881:Generated_Source\PSoC4/CyLib.c ****             (feedback  >= CY_SYS_CLK_PLL_CONFIG_FEEDBACK_DIV_MIN)  && (feedback  <= CY_SYS_CLK_PLL_
1882:Generated_Source\PSoC4/CyLib.c ****             (reference >= CY_SYS_CLK_PLL_CONFIG_REFERENCE_DIV_MIN) && (reference <= CY_SYS_CLK_PLL_
1883:Generated_Source\PSoC4/CyLib.c ****             (current   >= CY_SYS_CLK_PLL_CONFIG_ICP_SEL_MIN )      && (current   <= CY_SYS_CLK_PLL_
1884:Generated_Source\PSoC4/CyLib.c ****             (CYRET_SUCCESS == tmp))
1885:Generated_Source\PSoC4/CyLib.c ****         {
1886:Generated_Source\PSoC4/CyLib.c ****             /* Set new feedback, reference and current values */
1887:Generated_Source\PSoC4/CyLib.c ****             regTmp  = CY_SYS_CLK_PLL_BASE.pll[pll].config & (uint32) ~(CY_SYS_CLK_PLL_CONFIG_FEEDBA
1888:Generated_Source\PSoC4/CyLib.c ****                                                                        CY_SYS_CLK_PLL_CONFIG_REFERE
1889:Generated_Source\PSoC4/CyLib.c ****                                                                        CY_SYS_CLK_PLL_CONFIG_ICP_SE
1890:Generated_Source\PSoC4/CyLib.c **** 
1891:Generated_Source\PSoC4/CyLib.c ****             regTmp |= ((feedback << CY_SYS_CLK_PLL_CONFIG_FEEDBACK_DIV_SHIFT) & CY_SYS_CLK_PLL_CONF
1892:Generated_Source\PSoC4/CyLib.c ****             regTmp |= (((reference - 1u) << CY_SYS_CLK_PLL_CONFIG_REFERENCE_DIV_SHIFT) & CY_SYS_CLK
1893:Generated_Source\PSoC4/CyLib.c ****             regTmp |= ((current << CY_SYS_CLK_PLL_CONFIG_ICP_SEL_SHIFT) & CY_SYS_CLK_PLL_CONFIG_ICP
1894:Generated_Source\PSoC4/CyLib.c **** 
1895:Generated_Source\PSoC4/CyLib.c ****             CY_SYS_CLK_PLL_BASE.pll[pll].config = regTmp;
1896:Generated_Source\PSoC4/CyLib.c **** 
1897:Generated_Source\PSoC4/CyLib.c ****             returnStatus = CYRET_SUCCESS;
1898:Generated_Source\PSoC4/CyLib.c ****         }
1899:Generated_Source\PSoC4/CyLib.c **** 
1900:Generated_Source\PSoC4/CyLib.c ****         CyExitCriticalSection(interruptState);
1901:Generated_Source\PSoC4/CyLib.c **** 
ARM GAS  C:\Users\rolf\AppData\Local\Temp\ccET1jSp.s 			page 59


1902:Generated_Source\PSoC4/CyLib.c ****         return (returnStatus);
1903:Generated_Source\PSoC4/CyLib.c ****     }
1904:Generated_Source\PSoC4/CyLib.c **** 
1905:Generated_Source\PSoC4/CyLib.c **** 
1906:Generated_Source\PSoC4/CyLib.c ****     /*******************************************************************************
1907:Generated_Source\PSoC4/CyLib.c ****     * Function Name: CySysClkPllSetBypassMode
1908:Generated_Source\PSoC4/CyLib.c ****     ****************************************************************************//**
1909:Generated_Source\PSoC4/CyLib.c ****     *
1910:Generated_Source\PSoC4/CyLib.c ****     * Sets the bypass mode for the specified PLL.
1911:Generated_Source\PSoC4/CyLib.c ****     *
1912:Generated_Source\PSoC4/CyLib.c ****     * The PLL must not be the system clock source when calling this function.
1913:Generated_Source\PSoC4/CyLib.c ****     * The PLL output will glitch during this function call.
1914:Generated_Source\PSoC4/CyLib.c ****     *
1915:Generated_Source\PSoC4/CyLib.c ****     * When the PLL's reference input is higher than HFCLK frequency the device may
1916:Generated_Source\PSoC4/CyLib.c ****     * lock due to incorrect flash wait cycle configuration and bypass switches from
1917:Generated_Source\PSoC4/CyLib.c ****     * PLL output to the reference input. See description of
1918:Generated_Source\PSoC4/CyLib.c ****     * CySysFlashSetWaitCycles() for more information.
1919:Generated_Source\PSoC4/CyLib.c ****     *
1920:Generated_Source\PSoC4/CyLib.c ****     * This API is available only for PSoC 4200L / 4100S / 4500 swith PLL devices.
1921:Generated_Source\PSoC4/CyLib.c ****     *
1922:Generated_Source\PSoC4/CyLib.c ****     * \param PLL:
1923:Generated_Source\PSoC4/CyLib.c ****     *  0   PLL#0
1924:Generated_Source\PSoC4/CyLib.c ****     *  1   PLL#1 (available only for PSoC 4200L)
1925:Generated_Source\PSoC4/CyLib.c ****     *
1926:Generated_Source\PSoC4/CyLib.c ****     * \param bypass: The bypass mode.
1927:Generated_Source\PSoC4/CyLib.c ****     * CY_SYS_PLL_BYPASS_AUTO - Automatic usage of the lock indicator. When unlocked,
1928:Generated_Source\PSoC4/CyLib.c ****     * automatically selects PLL the reference input (bypass mode). When locked,
1929:Generated_Source\PSoC4/CyLib.c ****     * automatically selects the PLL output.
1930:Generated_Source\PSoC4/CyLib.c ****     *
1931:Generated_Source\PSoC4/CyLib.c ****     * CY_SYS_PLL_BYPASS_PLL_REF - Selects the PLL reference input (bypass mode).
1932:Generated_Source\PSoC4/CyLib.c ****     * Ignores the lock indicator.
1933:Generated_Source\PSoC4/CyLib.c ****     *
1934:Generated_Source\PSoC4/CyLib.c ****     * CY_SYS_PLL_BYPASS_PLL_OUT - Selects the PLL output.  Ignores the lock indicator.
1935:Generated_Source\PSoC4/CyLib.c ****     *
1936:Generated_Source\PSoC4/CyLib.c ****     *******************************************************************************/
1937:Generated_Source\PSoC4/CyLib.c ****     void CySysClkPllSetBypassMode(uint32 pll, uint32 bypass)
1938:Generated_Source\PSoC4/CyLib.c ****     {
 1336              		.loc 1 1938 0
 1337              		.cfi_startproc
 1338              		@ args = 0, pretend = 0, frame = 0
 1339              		@ frame_needed = 0, uses_anonymous_args = 0
 1340              	.LVL114:
 1341 0000 70B5     		push	{r4, r5, r6, lr}
 1342              		.cfi_def_cfa_offset 16
 1343              		.cfi_offset 4, -16
 1344              		.cfi_offset 5, -12
 1345              		.cfi_offset 6, -8
 1346              		.cfi_offset 14, -4
 1347 0002 0400     		movs	r4, r0
 1348 0004 0D00     		movs	r5, r1
1939:Generated_Source\PSoC4/CyLib.c ****         uint32 regTmp;
1940:Generated_Source\PSoC4/CyLib.c ****         uint8  interruptState;
1941:Generated_Source\PSoC4/CyLib.c **** 
1942:Generated_Source\PSoC4/CyLib.c ****         interruptState = CyEnterCriticalSection();
 1349              		.loc 1 1942 0
 1350 0006 FFF7FEFF 		bl	CyEnterCriticalSection
 1351              	.LVL115:
ARM GAS  C:\Users\rolf\AppData\Local\Temp\ccET1jSp.s 			page 60


1943:Generated_Source\PSoC4/CyLib.c **** 
1944:Generated_Source\PSoC4/CyLib.c ****         if ((pll < CY_IP_PLL_NR) && (bypass <= CY_SYS_PLL_BYPASS_PLL_OUT))
 1352              		.loc 1 1944 0
 1353 000a 012C     		cmp	r4, #1
 1354 000c 0DD8     		bhi	.L108
 1355              		.loc 1 1944 0 is_stmt 0 discriminator 1
 1356 000e 032D     		cmp	r5, #3
 1357 0010 0BD8     		bhi	.L108
1945:Generated_Source\PSoC4/CyLib.c ****         {
1946:Generated_Source\PSoC4/CyLib.c ****             regTmp  = CY_SYS_CLK_PLL_BASE.pll[pll].config & (uint32) ~CY_SYS_CLK_PLL_CONFIG_BYPASS_
 1358              		.loc 1 1946 0 is_stmt 1
 1359 0012 074A     		ldr	r2, .L109
 1360 0014 6100     		lsls	r1, r4, #1
 1361 0016 0E19     		adds	r6, r1, r4
 1362 0018 B300     		lsls	r3, r6, #2
 1363 001a 9E58     		ldr	r6, [r3, r2]
 1364 001c 054B     		ldr	r3, .L109+4
 1365 001e 3340     		ands	r3, r6
 1366              	.LVL116:
1947:Generated_Source\PSoC4/CyLib.c ****             regTmp |=  (uint32)(bypass << CY_SYS_CLK_PLL_CONFIG_BYPASS_SEL_SHIFT);
 1367              		.loc 1 1947 0
 1368 0020 2D05     		lsls	r5, r5, #20
 1369              	.LVL117:
 1370 0022 1D43     		orrs	r5, r3
 1371              	.LVL118:
1948:Generated_Source\PSoC4/CyLib.c ****             CY_SYS_CLK_PLL_BASE.pll[pll].config = regTmp;
 1372              		.loc 1 1948 0
 1373 0024 0C19     		adds	r4, r1, r4
 1374              	.LVL119:
 1375 0026 A300     		lsls	r3, r4, #2
 1376 0028 9D50     		str	r5, [r3, r2]
 1377              	.LVL120:
 1378              	.L108:
1949:Generated_Source\PSoC4/CyLib.c ****         }
1950:Generated_Source\PSoC4/CyLib.c **** 
1951:Generated_Source\PSoC4/CyLib.c ****         CyExitCriticalSection(interruptState);
 1379              		.loc 1 1951 0
 1380 002a FFF7FEFF 		bl	CyExitCriticalSection
 1381              	.LVL121:
1952:Generated_Source\PSoC4/CyLib.c ****     }
 1382              		.loc 1 1952 0
 1383              		@ sp needed
 1384 002e 70BD     		pop	{r4, r5, r6, pc}
 1385              	.L110:
 1386              		.align	2
 1387              	.L109:
 1388 0030 14000C40 		.word	1074528276
 1389 0034 FFFFCFFF 		.word	-3145729
 1390              		.cfi_endproc
 1391              	.LFE25:
 1392              		.size	CySysClkPllSetBypassMode, .-CySysClkPllSetBypassMode
 1393              		.section	.text.CySysClkPllGetUnlockStatus,"ax",%progbits
 1394              		.align	2
 1395              		.global	CySysClkPllGetUnlockStatus
 1396              		.code	16
 1397              		.thumb_func
 1398              		.type	CySysClkPllGetUnlockStatus, %function
ARM GAS  C:\Users\rolf\AppData\Local\Temp\ccET1jSp.s 			page 61


 1399              	CySysClkPllGetUnlockStatus:
 1400              	.LFB28:
1953:Generated_Source\PSoC4/CyLib.c **** 
1954:Generated_Source\PSoC4/CyLib.c **** 
1955:Generated_Source\PSoC4/CyLib.c ****     /*******************************************************************************
1956:Generated_Source\PSoC4/CyLib.c ****     * Function Name: CySysClkPllGetBypassMode
1957:Generated_Source\PSoC4/CyLib.c ****     ****************************************************************************//**
1958:Generated_Source\PSoC4/CyLib.c ****     *
1959:Generated_Source\PSoC4/CyLib.c ****     *  Gets the bypass mode for the specified PLL.
1960:Generated_Source\PSoC4/CyLib.c ****     *  This API is available only for PSoC 4200L / 4100S / 4500 with PLL devices.
1961:Generated_Source\PSoC4/CyLib.c ****     *
1962:Generated_Source\PSoC4/CyLib.c ****     *  \return bypass: Bypass mode.
1963:Generated_Source\PSoC4/CyLib.c ****     *   The same as the parameter of the CySysClkPllSetBypassMode().
1964:Generated_Source\PSoC4/CyLib.c ****     *
1965:Generated_Source\PSoC4/CyLib.c ****     *******************************************************************************/
1966:Generated_Source\PSoC4/CyLib.c ****     static uint32 CySysClkPllGetBypassMode(uint32 pll)
1967:Generated_Source\PSoC4/CyLib.c ****     {
1968:Generated_Source\PSoC4/CyLib.c ****         uint32 returnValue;
1969:Generated_Source\PSoC4/CyLib.c ****         uint8  interruptState;
1970:Generated_Source\PSoC4/CyLib.c **** 
1971:Generated_Source\PSoC4/CyLib.c ****         CYASSERT(pll < CY_IP_PLL_NR);
1972:Generated_Source\PSoC4/CyLib.c **** 
1973:Generated_Source\PSoC4/CyLib.c ****         interruptState = CyEnterCriticalSection();
1974:Generated_Source\PSoC4/CyLib.c **** 
1975:Generated_Source\PSoC4/CyLib.c ****         returnValue = CY_SYS_CLK_PLL_BASE.pll[pll].config & CY_SYS_CLK_PLL_CONFIG_BYPASS_SEL_MASK;
1976:Generated_Source\PSoC4/CyLib.c ****         returnValue =  returnValue >> CY_SYS_CLK_PLL_CONFIG_BYPASS_SEL_SHIFT;
1977:Generated_Source\PSoC4/CyLib.c **** 
1978:Generated_Source\PSoC4/CyLib.c ****         CyExitCriticalSection(interruptState);
1979:Generated_Source\PSoC4/CyLib.c **** 
1980:Generated_Source\PSoC4/CyLib.c ****         return (returnValue);
1981:Generated_Source\PSoC4/CyLib.c ****     }
1982:Generated_Source\PSoC4/CyLib.c **** 
1983:Generated_Source\PSoC4/CyLib.c **** 
1984:Generated_Source\PSoC4/CyLib.c ****     /*******************************************************************************
1985:Generated_Source\PSoC4/CyLib.c ****     * Function Name: CySysClkPllConfigChangeAllowed
1986:Generated_Source\PSoC4/CyLib.c ****     ****************************************************************************//**
1987:Generated_Source\PSoC4/CyLib.c ****     *
1988:Generated_Source\PSoC4/CyLib.c ****     *  The function returns non-zero value if the specified PLL sources the System
1989:Generated_Source\PSoC4/CyLib.c ****     *  clock and the PLL is not in the bypass mode.
1990:Generated_Source\PSoC4/CyLib.c ****     *
1991:Generated_Source\PSoC4/CyLib.c ****     *  This API is available only for PSoC 4200L / 4100S / 4500 with PLL devices.
1992:Generated_Source\PSoC4/CyLib.c ****     *
1993:Generated_Source\PSoC4/CyLib.c ****     *  \param PLL:
1994:Generated_Source\PSoC4/CyLib.c ****     *   0   PLL#0
1995:Generated_Source\PSoC4/CyLib.c ****     *   1   PLL#1 (available only for PSoC 4200L)
1996:Generated_Source\PSoC4/CyLib.c ****     *
1997:Generated_Source\PSoC4/CyLib.c ****     * \return Non-zero value when the specified PLL sources the System clock and
1998:Generated_Source\PSoC4/CyLib.c ****     * the PLL is not in the bypass mode.
1999:Generated_Source\PSoC4/CyLib.c ****     *
2000:Generated_Source\PSoC4/CyLib.c ****     *******************************************************************************/
2001:Generated_Source\PSoC4/CyLib.c ****     static cystatus CySysClkPllConfigChangeAllowed(uint32 pll)
2002:Generated_Source\PSoC4/CyLib.c ****     {
2003:Generated_Source\PSoC4/CyLib.c ****         uint32   pllBypassMode;
2004:Generated_Source\PSoC4/CyLib.c ****         uint32   sysclkSource;
2005:Generated_Source\PSoC4/CyLib.c ****         cystatus returnValue = CYRET_INVALID_STATE;
2006:Generated_Source\PSoC4/CyLib.c **** 
2007:Generated_Source\PSoC4/CyLib.c ****         sysclkSource  = CySysClkGetSysclkSource();
ARM GAS  C:\Users\rolf\AppData\Local\Temp\ccET1jSp.s 			page 62


2008:Generated_Source\PSoC4/CyLib.c ****         pllBypassMode = CySysClkPllGetBypassMode(pll);
2009:Generated_Source\PSoC4/CyLib.c **** 
2010:Generated_Source\PSoC4/CyLib.c ****         if ((CY_SYS_PLL_BYPASS_PLL_REF == pllBypassMode)             ||
2011:Generated_Source\PSoC4/CyLib.c ****             ((CY_SYS_CLK_HFCLK_PLL0 != sysclkSource) && (0u == pll))
2012:Generated_Source\PSoC4/CyLib.c ****         #if (CY_IP_SRSSV2)
2013:Generated_Source\PSoC4/CyLib.c ****             || ((CY_SYS_CLK_HFCLK_PLL1 != sysclkSource) && (1u == pll))
2014:Generated_Source\PSoC4/CyLib.c ****         #endif /* (CY_IP_SRSSV2) */
2015:Generated_Source\PSoC4/CyLib.c ****             )
2016:Generated_Source\PSoC4/CyLib.c ****         {
2017:Generated_Source\PSoC4/CyLib.c ****             returnValue = CYRET_SUCCESS;
2018:Generated_Source\PSoC4/CyLib.c ****         }
2019:Generated_Source\PSoC4/CyLib.c **** 
2020:Generated_Source\PSoC4/CyLib.c ****         return (returnValue);
2021:Generated_Source\PSoC4/CyLib.c ****     }
2022:Generated_Source\PSoC4/CyLib.c **** 
2023:Generated_Source\PSoC4/CyLib.c **** 
2024:Generated_Source\PSoC4/CyLib.c ****     /*******************************************************************************
2025:Generated_Source\PSoC4/CyLib.c ****     * Function Name: CySysClkPllGetUnlockStatus
2026:Generated_Source\PSoC4/CyLib.c ****     ****************************************************************************//**
2027:Generated_Source\PSoC4/CyLib.c ****     *
2028:Generated_Source\PSoC4/CyLib.c ****     *  Returns a non-zero value if the specified PLL output was unlocked.
2029:Generated_Source\PSoC4/CyLib.c ****     *  The unlock status is an indicator that the PLL has lost a lock at least once
2030:Generated_Source\PSoC4/CyLib.c ****     *  during its operation. The unlock status is cleared once it is read using
2031:Generated_Source\PSoC4/CyLib.c ****     *  this API.
2032:Generated_Source\PSoC4/CyLib.c ****     *
2033:Generated_Source\PSoC4/CyLib.c ****     *  This API is available only for PSoC 4200L / 4100S / 4500 with PLL devices.
2034:Generated_Source\PSoC4/CyLib.c ****     *
2035:Generated_Source\PSoC4/CyLib.c ****     *  \param PLL:
2036:Generated_Source\PSoC4/CyLib.c ****     *   0   PLL#0
2037:Generated_Source\PSoC4/CyLib.c ****     *   1   PLL#1 (available only for PSoC 4200L)
2038:Generated_Source\PSoC4/CyLib.c ****     *
2039:Generated_Source\PSoC4/CyLib.c ****     * \return Non-zero value when the specified PLL was unlocked.
2040:Generated_Source\PSoC4/CyLib.c ****     *
2041:Generated_Source\PSoC4/CyLib.c ****     *******************************************************************************/
2042:Generated_Source\PSoC4/CyLib.c ****     uint32 CySysClkPllGetUnlockStatus(uint32 pll)
2043:Generated_Source\PSoC4/CyLib.c ****     {
 1401              		.loc 1 2043 0
 1402              		.cfi_startproc
 1403              		@ args = 0, pretend = 0, frame = 0
 1404              		@ frame_needed = 0, uses_anonymous_args = 0
 1405              	.LVL122:
 1406 0000 70B5     		push	{r4, r5, r6, lr}
 1407              		.cfi_def_cfa_offset 16
 1408              		.cfi_offset 4, -16
 1409              		.cfi_offset 5, -12
 1410              		.cfi_offset 6, -8
 1411              		.cfi_offset 14, -4
 1412 0002 0400     		movs	r4, r0
 1413              	.LVL123:
2044:Generated_Source\PSoC4/CyLib.c ****         uint32 returnStatus = 0u;
2045:Generated_Source\PSoC4/CyLib.c ****         uint8  interruptState;
2046:Generated_Source\PSoC4/CyLib.c **** 
2047:Generated_Source\PSoC4/CyLib.c ****         interruptState = CyEnterCriticalSection();
 1414              		.loc 1 2047 0
 1415 0004 FFF7FEFF 		bl	CyEnterCriticalSection
 1416              	.LVL124:
2048:Generated_Source\PSoC4/CyLib.c **** 
ARM GAS  C:\Users\rolf\AppData\Local\Temp\ccET1jSp.s 			page 63


2049:Generated_Source\PSoC4/CyLib.c ****         returnStatus = CY_SYS_CLK_PLL_BASE.pll[pll].test & CY_SYS_CLK_PLL_TEST_UNLOCK_OCCURRED_MASK
 1417              		.loc 1 2049 0
 1418 0008 6100     		lsls	r1, r4, #1
 1419 000a 0A19     		adds	r2, r1, r4
 1420 000c 9300     		lsls	r3, r2, #2
 1421 000e 084A     		ldr	r2, .L112
 1422 0010 9446     		mov	ip, r2
 1423 0012 6344     		add	r3, r3, ip
 1424 0014 9D68     		ldr	r5, [r3, #8]
 1425 0016 1022     		movs	r2, #16
 1426 0018 1540     		ands	r5, r2
 1427              	.LVL125:
2050:Generated_Source\PSoC4/CyLib.c ****         CY_SYS_CLK_PLL_BASE.pll[pll].test |= CY_SYS_CLK_PLL_TEST_UNLOCK_OCCURRED_MASK;
 1428              		.loc 1 2050 0
 1429 001a 9B68     		ldr	r3, [r3, #8]
 1430 001c 1A43     		orrs	r2, r3
 1431 001e 0C19     		adds	r4, r1, r4
 1432              	.LVL126:
 1433 0020 A300     		lsls	r3, r4, #2
 1434 0022 6344     		add	r3, r3, ip
 1435 0024 9A60     		str	r2, [r3, #8]
2051:Generated_Source\PSoC4/CyLib.c **** 
2052:Generated_Source\PSoC4/CyLib.c ****         CyExitCriticalSection(interruptState);
 1436              		.loc 1 2052 0
 1437 0026 FFF7FEFF 		bl	CyExitCriticalSection
 1438              	.LVL127:
2053:Generated_Source\PSoC4/CyLib.c **** 
2054:Generated_Source\PSoC4/CyLib.c ****         return (returnStatus);
2055:Generated_Source\PSoC4/CyLib.c ****     }
 1439              		.loc 1 2055 0
 1440 002a 2800     		movs	r0, r5
 1441              		@ sp needed
 1442              	.LVL128:
 1443 002c 70BD     		pop	{r4, r5, r6, pc}
 1444              	.L113:
 1445 002e C046     		.align	2
 1446              	.L112:
 1447 0030 14000C40 		.word	1074528276
 1448              		.cfi_endproc
 1449              	.LFE28:
 1450              		.size	CySysClkPllGetUnlockStatus, .-CySysClkPllGetUnlockStatus
 1451              		.section	.text.CySysClkPllSetSource,"ax",%progbits
 1452              		.align	2
 1453              		.global	CySysClkPllSetSource
 1454              		.code	16
 1455              		.thumb_func
 1456              		.type	CySysClkPllSetSource, %function
 1457              	CySysClkPllSetSource:
 1458              	.LFB30:
2056:Generated_Source\PSoC4/CyLib.c **** 
2057:Generated_Source\PSoC4/CyLib.c **** 
2058:Generated_Source\PSoC4/CyLib.c ****     /*******************************************************************************
2059:Generated_Source\PSoC4/CyLib.c ****     * Function Name: CySysClkPllSetFrequency
2060:Generated_Source\PSoC4/CyLib.c ****     ****************************************************************************//**
2061:Generated_Source\PSoC4/CyLib.c ****     *
2062:Generated_Source\PSoC4/CyLib.c ****     * Configures either PLL#0 or PLL#1 for the requested input/output frequencies.
2063:Generated_Source\PSoC4/CyLib.c ****     * The input frequency is the frequency of the source to the PLL. The source is
ARM GAS  C:\Users\rolf\AppData\Local\Temp\ccET1jSp.s 			page 64


2064:Generated_Source\PSoC4/CyLib.c ****     * set using the CySysClkPllSetSource() function.
2065:Generated_Source\PSoC4/CyLib.c ****     *
2066:Generated_Source\PSoC4/CyLib.c ****     * The PLL must not be the system clock source when calling this function. The
2067:Generated_Source\PSoC4/CyLib.c ****     * PLL output will glitch during this function call.
2068:Generated_Source\PSoC4/CyLib.c ****     *
2069:Generated_Source\PSoC4/CyLib.c ****     * This API is available only for PSoC 4200L / 4100S / 4500 with PLL devices.
2070:Generated_Source\PSoC4/CyLib.c ****     *
2071:Generated_Source\PSoC4/CyLib.c ****     * \param pll:
2072:Generated_Source\PSoC4/CyLib.c ****     *  0   PLL#0
2073:Generated_Source\PSoC4/CyLib.c ****     *  1   PLL#1 (available only for PSoC 4200L)
2074:Generated_Source\PSoC4/CyLib.c ****     *
2075:Generated_Source\PSoC4/CyLib.c ****     * \param inputFreq The reference frequency in KHz. The valid range is from 1000 to 49152 KHz.
2076:Generated_Source\PSoC4/CyLib.c ****     *
2077:Generated_Source\PSoC4/CyLib.c ****     * \param pllFreq The target frequency in KHz. The valid range is from 22500 to 49152 KHz.
2078:Generated_Source\PSoC4/CyLib.c ****     *
2079:Generated_Source\PSoC4/CyLib.c ****     * \param divider The output clock divider for the PLL:
2080:Generated_Source\PSoC4/CyLib.c ****     * CY_SYS_PLL_OUTPUT_DIVPASS    Pass Through
2081:Generated_Source\PSoC4/CyLib.c ****     * CY_SYS_PLL_OUTPUT_DIV2       Divide by 2
2082:Generated_Source\PSoC4/CyLib.c ****     * CY_SYS_PLL_OUTPUT_DIV4       Divide by 4
2083:Generated_Source\PSoC4/CyLib.c ****     * CY_SYS_PLL_OUTPUT_DIV8       Divide by 8
2084:Generated_Source\PSoC4/CyLib.c ****     *
2085:Generated_Source\PSoC4/CyLib.c ****     * \param freqTol The tolerance in ppm, 10 ppm is equal to 0.001%.
2086:Generated_Source\PSoC4/CyLib.c ****     *
2087:Generated_Source\PSoC4/CyLib.c ****     * \return CYRET_SUCCESS The PLL was successfully configured for the requested
2088:Generated_Source\PSoC4/CyLib.c ****     * frequency.
2089:Generated_Source\PSoC4/CyLib.c ****     *
2090:Generated_Source\PSoC4/CyLib.c ****     * \return CYRET_BAD_PARAM The PLL was not able to successfully configure for the
2091:Generated_Source\PSoC4/CyLib.c ****     * requested frequency.
2092:Generated_Source\PSoC4/CyLib.c ****     *
2093:Generated_Source\PSoC4/CyLib.c ****     *******************************************************************************/
2094:Generated_Source\PSoC4/CyLib.c ****     cystatus CySysClkPllSetFrequency(uint32 pll, uint32 inputFreq, uint32 pllFreq, uint32 divider, 
2095:Generated_Source\PSoC4/CyLib.c ****     {
2096:Generated_Source\PSoC4/CyLib.c ****         uint32 qMin;
2097:Generated_Source\PSoC4/CyLib.c ****         uint32 qMax;
2098:Generated_Source\PSoC4/CyLib.c **** 
2099:Generated_Source\PSoC4/CyLib.c ****         uint32 qVal = CY_SYS_CLK_PLL_INVALID;
2100:Generated_Source\PSoC4/CyLib.c ****         uint32 pVal = CY_SYS_CLK_PLL_INVALID;
2101:Generated_Source\PSoC4/CyLib.c **** 
2102:Generated_Source\PSoC4/CyLib.c ****         uint32 q;
2103:Generated_Source\PSoC4/CyLib.c ****         uint32 p;
2104:Generated_Source\PSoC4/CyLib.c **** 
2105:Generated_Source\PSoC4/CyLib.c ****         uint32 fvco;
2106:Generated_Source\PSoC4/CyLib.c ****         int32 ferr;
2107:Generated_Source\PSoC4/CyLib.c **** 
2108:Generated_Source\PSoC4/CyLib.c ****         cystatus tmp;
2109:Generated_Source\PSoC4/CyLib.c ****         cystatus returnStatus = CYRET_BAD_PARAM;
2110:Generated_Source\PSoC4/CyLib.c **** 
2111:Generated_Source\PSoC4/CyLib.c **** 
2112:Generated_Source\PSoC4/CyLib.c ****         tmp = CySysClkPllConfigChangeAllowed(pll);
2113:Generated_Source\PSoC4/CyLib.c **** 
2114:Generated_Source\PSoC4/CyLib.c ****         if ((pll < CY_IP_PLL_NR) &&
2115:Generated_Source\PSoC4/CyLib.c ****             (inputFreq  >= CY_SYS_CLK_PLL_INPUT_FREQ_MIN )  && (inputFreq  <= CY_SYS_CLK_PLL_INPUT_
2116:Generated_Source\PSoC4/CyLib.c ****             (pllFreq >= CY_SYS_CLK_PLL_OUTPUT_FREQ_MIN ) && (pllFreq <= CY_SYS_CLK_PLL_OUTPUT_FREQ_
2117:Generated_Source\PSoC4/CyLib.c ****             (divider <= CY_SYS_PLL_OUTPUT_DIV8) &&
2118:Generated_Source\PSoC4/CyLib.c ****             (CYRET_SUCCESS == tmp))
2119:Generated_Source\PSoC4/CyLib.c ****         {
2120:Generated_Source\PSoC4/CyLib.c **** 
ARM GAS  C:\Users\rolf\AppData\Local\Temp\ccET1jSp.s 			page 65


2121:Generated_Source\PSoC4/CyLib.c ****             /* Minimum feed forward loop divisor */
2122:Generated_Source\PSoC4/CyLib.c ****             qMin = (inputFreq + (CY_SYS_CLK_PLL_FPFDMAX - 1u)) / CY_SYS_CLK_PLL_FPFDMAX;
2123:Generated_Source\PSoC4/CyLib.c ****             qMin = (qMin < CY_SYS_CLK_PLL_QMINIP) ? CY_SYS_CLK_PLL_QMINIP : qMin;
2124:Generated_Source\PSoC4/CyLib.c **** 
2125:Generated_Source\PSoC4/CyLib.c ****             /* Maximum feed forward loop divisor */
2126:Generated_Source\PSoC4/CyLib.c ****             qMax = inputFreq / CY_SYS_CLK_PLL_FPFDMIN;
2127:Generated_Source\PSoC4/CyLib.c ****             qMax = (qMax > CY_SYS_CLK_PLL_QMAXIP) ? CY_SYS_CLK_PLL_QMAXIP : qMax;
2128:Generated_Source\PSoC4/CyLib.c **** 
2129:Generated_Source\PSoC4/CyLib.c ****             if (qMin <= qMax)
2130:Generated_Source\PSoC4/CyLib.c ****             {
2131:Generated_Source\PSoC4/CyLib.c ****                 for(q = qMin; q <= qMax; q++)
2132:Generated_Source\PSoC4/CyLib.c ****                 {
2133:Generated_Source\PSoC4/CyLib.c ****                     /* Solve for the feedback divisor value */
2134:Generated_Source\PSoC4/CyLib.c **** 
2135:Generated_Source\PSoC4/CyLib.c ****                     /* INT((pllFreq * q ) / inputFreq), where INT is normal rounding  */
2136:Generated_Source\PSoC4/CyLib.c ****                     p = ((pllFreq * q) + (inputFreq / 2u)) / inputFreq;
2137:Generated_Source\PSoC4/CyLib.c **** 
2138:Generated_Source\PSoC4/CyLib.c ****                     /* Calculate the actual VCO frequency (FVCO) */
2139:Generated_Source\PSoC4/CyLib.c ****                     fvco = ((inputFreq * p) / q);
2140:Generated_Source\PSoC4/CyLib.c **** 
2141:Generated_Source\PSoC4/CyLib.c ****                     /* Calculate the frequency error (FERR) */
2142:Generated_Source\PSoC4/CyLib.c ****                     ferr = ((1000000 * ((int32) fvco - (int32) pllFreq))/ (int32) pllFreq);
2143:Generated_Source\PSoC4/CyLib.c **** 
2144:Generated_Source\PSoC4/CyLib.c ****                     /* Bound check the frequency error and decide next action */
2145:Generated_Source\PSoC4/CyLib.c ****                     if ((( -1 * (int32) freqTol) <= ferr) && (ferr <= (int32) freqTol))
2146:Generated_Source\PSoC4/CyLib.c ****                     {
2147:Generated_Source\PSoC4/CyLib.c ****                         qVal = q;
2148:Generated_Source\PSoC4/CyLib.c ****                         pVal = p;
2149:Generated_Source\PSoC4/CyLib.c ****                         break;
2150:Generated_Source\PSoC4/CyLib.c ****                     }
2151:Generated_Source\PSoC4/CyLib.c ****                 }
2152:Generated_Source\PSoC4/CyLib.c **** 
2153:Generated_Source\PSoC4/CyLib.c **** 
2154:Generated_Source\PSoC4/CyLib.c ****                 if ((pVal != CY_SYS_CLK_PLL_INVALID) && (qVal != CY_SYS_CLK_PLL_INVALID))
2155:Generated_Source\PSoC4/CyLib.c ****                 {
2156:Generated_Source\PSoC4/CyLib.c ****                     if (CySysClkPllSetPQ(pll, pVal, qVal, CY_SYS_CLK_PLL_CURRENT_DEFAULT) == CYRET_
2157:Generated_Source\PSoC4/CyLib.c ****                     {
2158:Generated_Source\PSoC4/CyLib.c ****                         returnStatus = CySysClkPllSetOutputDivider(pll, divider);
2159:Generated_Source\PSoC4/CyLib.c ****                     }
2160:Generated_Source\PSoC4/CyLib.c ****                 }
2161:Generated_Source\PSoC4/CyLib.c ****             }
2162:Generated_Source\PSoC4/CyLib.c **** 
2163:Generated_Source\PSoC4/CyLib.c ****         }
2164:Generated_Source\PSoC4/CyLib.c **** 
2165:Generated_Source\PSoC4/CyLib.c ****         return (returnStatus);
2166:Generated_Source\PSoC4/CyLib.c ****     }
2167:Generated_Source\PSoC4/CyLib.c **** 
2168:Generated_Source\PSoC4/CyLib.c ****     /*******************************************************************************
2169:Generated_Source\PSoC4/CyLib.c ****     * Function Name: CySysClkPllSetSource
2170:Generated_Source\PSoC4/CyLib.c ****     ****************************************************************************//**
2171:Generated_Source\PSoC4/CyLib.c ****     *
2172:Generated_Source\PSoC4/CyLib.c ****     *  Sets the input clock source to the PLL. The PLL must be disabled before
2173:Generated_Source\PSoC4/CyLib.c ****     *  calling this function.
2174:Generated_Source\PSoC4/CyLib.c ****     *
2175:Generated_Source\PSoC4/CyLib.c ****     *  This API is available only for PSoC 4200L / 4100S /4500 with PLL devices.
2176:Generated_Source\PSoC4/CyLib.c ****     *
2177:Generated_Source\PSoC4/CyLib.c ****     *  \param PLL:
ARM GAS  C:\Users\rolf\AppData\Local\Temp\ccET1jSp.s 			page 66


2178:Generated_Source\PSoC4/CyLib.c ****     *  0   PLL#0
2179:Generated_Source\PSoC4/CyLib.c ****     *  1   PLL#1 (available only for PSoC 4200L)
2180:Generated_Source\PSoC4/CyLib.c ****     *
2181:Generated_Source\PSoC4/CyLib.c ****     * \param source:
2182:Generated_Source\PSoC4/CyLib.c ****     *  CY_SYS_PLL_SOURCE_IMO        IMO
2183:Generated_Source\PSoC4/CyLib.c ****     *  CY_SYS_PLL_SOURCE_EXTCLK     External Clock (available only for PSoC 4200L
2184:Generated_Source\PSoC4/CyLib.c ****     *  and PSoC 4500 with PLL devices)
2185:Generated_Source\PSoC4/CyLib.c ****     *  CY_SYS_PLL_SOURCE_ECO        ECO
2186:Generated_Source\PSoC4/CyLib.c ****     *  CY_SYS_PLL_SOURCE_DSI0       DSI_OUT[0] (available only for PSoC 4200L)
2187:Generated_Source\PSoC4/CyLib.c ****     *  CY_SYS_PLL_SOURCE_DSI1       DSI_OUT[1] (available only for PSoC 4200L)
2188:Generated_Source\PSoC4/CyLib.c ****     *  CY_SYS_PLL_SOURCE_DSI2       DSI_OUT[2] (available only for PSoC 4200L)
2189:Generated_Source\PSoC4/CyLib.c ****     *  CY_SYS_PLL_SOURCE_DSI3       DSI_OUT[3] (available only for PSoC 4200L)
2190:Generated_Source\PSoC4/CyLib.c ****     *
2191:Generated_Source\PSoC4/CyLib.c ****     *******************************************************************************/
2192:Generated_Source\PSoC4/CyLib.c ****     void CySysClkPllSetSource(uint32 pll, uint32 source)
2193:Generated_Source\PSoC4/CyLib.c ****     {
 1459              		.loc 1 2193 0
 1460              		.cfi_startproc
 1461              		@ args = 0, pretend = 0, frame = 0
 1462              		@ frame_needed = 0, uses_anonymous_args = 0
 1463              	.LVL129:
 1464 0000 70B5     		push	{r4, r5, r6, lr}
 1465              		.cfi_def_cfa_offset 16
 1466              		.cfi_offset 4, -16
 1467              		.cfi_offset 5, -12
 1468              		.cfi_offset 6, -8
 1469              		.cfi_offset 14, -4
 1470 0002 0400     		movs	r4, r0
 1471 0004 0D00     		movs	r5, r1
2194:Generated_Source\PSoC4/CyLib.c ****         uint8  interruptState;
2195:Generated_Source\PSoC4/CyLib.c **** 
2196:Generated_Source\PSoC4/CyLib.c ****         #if (CY_IP_SRSSLT)
2197:Generated_Source\PSoC4/CyLib.c ****             uint8 i = 0u;
2198:Generated_Source\PSoC4/CyLib.c ****         #else
2199:Generated_Source\PSoC4/CyLib.c ****             uint32 regTmp;
2200:Generated_Source\PSoC4/CyLib.c ****         #endif /* (CY_IP_SRSSLT) */
2201:Generated_Source\PSoC4/CyLib.c **** 
2202:Generated_Source\PSoC4/CyLib.c ****         interruptState = CyEnterCriticalSection();
 1472              		.loc 1 2202 0
 1473 0006 FFF7FEFF 		bl	CyEnterCriticalSection
 1474              	.LVL130:
2203:Generated_Source\PSoC4/CyLib.c **** 
2204:Generated_Source\PSoC4/CyLib.c ****         if (pll < CY_IP_PLL_NR)
 1475              		.loc 1 2204 0
 1476 000a 012C     		cmp	r4, #1
 1477 000c 0BD8     		bhi	.L115
2205:Generated_Source\PSoC4/CyLib.c ****         {
2206:Generated_Source\PSoC4/CyLib.c ****             #if(CY_IP_SRSSV2)
2207:Generated_Source\PSoC4/CyLib.c ****                 regTmp = CY_SYS_CLK_SELECT_REG & (uint32) ~CY_SYS_CLK_SELECT_PLL_MASK(pll);
 1478              		.loc 1 2207 0
 1479 000e 0749     		ldr	r1, .L116
 1480 0010 0A68     		ldr	r2, [r1]
 1481 0012 0134     		adds	r4, r4, #1
 1482              	.LVL131:
 1483 0014 6300     		lsls	r3, r4, #1
 1484 0016 1C19     		adds	r4, r3, r4
 1485              	.LVL132:
ARM GAS  C:\Users\rolf\AppData\Local\Temp\ccET1jSp.s 			page 67


 1486 0018 0723     		movs	r3, #7
 1487 001a A340     		lsls	r3, r3, r4
 1488 001c 9A43     		bics	r2, r3
 1489              	.LVL133:
2208:Generated_Source\PSoC4/CyLib.c ****                 regTmp |= ((source << CY_SYS_CLK_SELECT_PLL_SHIFT(pll)) & CY_SYS_CLK_SELECT_PLL_MAS
 1490              		.loc 1 2208 0
 1491 001e A540     		lsls	r5, r5, r4
 1492              	.LVL134:
 1493 0020 2B40     		ands	r3, r5
 1494 0022 1343     		orrs	r3, r2
 1495              	.LVL135:
2209:Generated_Source\PSoC4/CyLib.c ****                 CY_SYS_CLK_SELECT_REG = regTmp;
 1496              		.loc 1 2209 0
 1497 0024 0B60     		str	r3, [r1]
 1498              	.LVL136:
 1499              	.L115:
2210:Generated_Source\PSoC4/CyLib.c ****             #else
2211:Generated_Source\PSoC4/CyLib.c ****                 CY_SET_REG32_FIELD(CYREG_EXCO_CLK_SELECT, CYFLD_EXCO_REF_SEL, source);
2212:Generated_Source\PSoC4/CyLib.c **** 
2213:Generated_Source\PSoC4/CyLib.c ****                 /* Check if ECO is enabled and running */
2214:Generated_Source\PSoC4/CyLib.c ****                 if ((0UL == (CY_SYS_CLK_ECO_CONFIG_REG & CY_SYS_CLK_ECO_CONFIG_ENABLE)) ||
2215:Generated_Source\PSoC4/CyLib.c ****                     (0UL != (CY_SYS_CLK_ECO_STATUS_REG & CY_SYS_CLK_ECO_STATUS_WATCHDOG_ERROR)))
2216:Generated_Source\PSoC4/CyLib.c ****                 {
2217:Generated_Source\PSoC4/CyLib.c ****                     /* Generate clock sequence to change clock source in CY_SYS_ECO_CLK_SELECT_REG 
2218:Generated_Source\PSoC4/CyLib.c ****                     CY_SYS_EXCO_PGM_CLK_REG |= CY_SYS_EXCO_PGM_CLK_ENABLE_MASK;
2219:Generated_Source\PSoC4/CyLib.c **** 
2220:Generated_Source\PSoC4/CyLib.c ****                     for(i = 0u; i < CY_SYS_EXCO_PGM_CLK_SEQ_GENERATOR; i++)
2221:Generated_Source\PSoC4/CyLib.c ****                     {
2222:Generated_Source\PSoC4/CyLib.c ****                         CY_SYS_EXCO_PGM_CLK_REG |= CY_SYS_EXCO_PGM_CLK_CLK_ECO_MASK;
2223:Generated_Source\PSoC4/CyLib.c ****                         CY_SYS_EXCO_PGM_CLK_REG &= ~CY_SYS_EXCO_PGM_CLK_CLK_ECO_MASK;
2224:Generated_Source\PSoC4/CyLib.c ****                     }
2225:Generated_Source\PSoC4/CyLib.c **** 
2226:Generated_Source\PSoC4/CyLib.c ****                     CY_SYS_EXCO_PGM_CLK_REG &= ~CY_SYS_EXCO_PGM_CLK_ENABLE_MASK;
2227:Generated_Source\PSoC4/CyLib.c ****                 }
2228:Generated_Source\PSoC4/CyLib.c **** 
2229:Generated_Source\PSoC4/CyLib.c ****             #endif /* (CY_IP_SRSSV2) */
2230:Generated_Source\PSoC4/CyLib.c ****         }
2231:Generated_Source\PSoC4/CyLib.c **** 
2232:Generated_Source\PSoC4/CyLib.c ****         CyExitCriticalSection(interruptState);
 1500              		.loc 1 2232 0
 1501 0026 FFF7FEFF 		bl	CyExitCriticalSection
 1502              	.LVL137:
2233:Generated_Source\PSoC4/CyLib.c ****     }
 1503              		.loc 1 2233 0
 1504              		@ sp needed
 1505 002a 70BD     		pop	{r4, r5, r6, pc}
 1506              	.L117:
 1507              		.align	2
 1508              	.L116:
 1509 002c 00010B40 		.word	1074462976
 1510              		.cfi_endproc
 1511              	.LFE30:
 1512              		.size	CySysClkPllSetSource, .-CySysClkPllSetSource
 1513              		.section	.text.CySysLvdDisable,"ax",%progbits
 1514              		.align	2
 1515              		.global	CySysLvdDisable
 1516              		.code	16
