ARM GAS  C:\Users\rolf\AppData\Local\Temp\ccdQYz7E.s 			page 1


   1              		.syntax unified
   2              		.cpu cortex-m0
   3              		.fpu softvfp
   4              		.eabi_attribute 20, 1
   5              		.eabi_attribute 21, 1
   6              		.eabi_attribute 23, 3
   7              		.eabi_attribute 24, 1
   8              		.eabi_attribute 25, 1
   9              		.eabi_attribute 26, 1
  10              		.eabi_attribute 30, 1
  11              		.eabi_attribute 34, 0
  12              		.eabi_attribute 18, 4
  13              		.thumb
  14              		.syntax unified
  15              		.file	"SPIM_EE.c"
  16              		.text
  17              	.Ltext0:
  18              		.cfi_sections	.debug_frame
  19              		.section	.text.SPIM_EE_Enable,"ax",%progbits
  20              		.align	2
  21              		.global	SPIM_EE_Enable
  22              		.code	16
  23              		.thumb_func
  24              		.type	SPIM_EE_Enable, %function
  25              	SPIM_EE_Enable:
  26              	.LFB2:
  27              		.file 1 "Generated_Source\\PSoC4\\SPIM_EE.c"
   1:Generated_Source\PSoC4/SPIM_EE.c **** /*******************************************************************************
   2:Generated_Source\PSoC4/SPIM_EE.c **** * File Name: SPIM_EE.c
   3:Generated_Source\PSoC4/SPIM_EE.c **** * Version 2.50
   4:Generated_Source\PSoC4/SPIM_EE.c **** *
   5:Generated_Source\PSoC4/SPIM_EE.c **** * Description:
   6:Generated_Source\PSoC4/SPIM_EE.c **** *  This file provides all API functionality of the SPI Master component.
   7:Generated_Source\PSoC4/SPIM_EE.c **** *
   8:Generated_Source\PSoC4/SPIM_EE.c **** * Note:
   9:Generated_Source\PSoC4/SPIM_EE.c **** *  None.
  10:Generated_Source\PSoC4/SPIM_EE.c **** *
  11:Generated_Source\PSoC4/SPIM_EE.c **** ********************************************************************************
  12:Generated_Source\PSoC4/SPIM_EE.c **** * Copyright 2008-2015, Cypress Semiconductor Corporation.  All rights reserved.
  13:Generated_Source\PSoC4/SPIM_EE.c **** * You may use this file only in accordance with the license, terms, conditions,
  14:Generated_Source\PSoC4/SPIM_EE.c **** * disclaimers, and limitations in the end user license agreement accompanying
  15:Generated_Source\PSoC4/SPIM_EE.c **** * the software package with which this file was provided.
  16:Generated_Source\PSoC4/SPIM_EE.c **** *******************************************************************************/
  17:Generated_Source\PSoC4/SPIM_EE.c **** 
  18:Generated_Source\PSoC4/SPIM_EE.c **** #include "SPIM_EE_PVT.h"
  19:Generated_Source\PSoC4/SPIM_EE.c **** 
  20:Generated_Source\PSoC4/SPIM_EE.c **** #if(SPIM_EE_TX_SOFTWARE_BUF_ENABLED)
  21:Generated_Source\PSoC4/SPIM_EE.c ****     volatile uint8 SPIM_EE_txBuffer[SPIM_EE_TX_BUFFER_SIZE];
  22:Generated_Source\PSoC4/SPIM_EE.c ****     volatile uint8 SPIM_EE_txBufferFull;
  23:Generated_Source\PSoC4/SPIM_EE.c ****     volatile uint8 SPIM_EE_txBufferRead;
  24:Generated_Source\PSoC4/SPIM_EE.c ****     volatile uint8 SPIM_EE_txBufferWrite;
  25:Generated_Source\PSoC4/SPIM_EE.c **** #endif /* (SPIM_EE_TX_SOFTWARE_BUF_ENABLED) */
  26:Generated_Source\PSoC4/SPIM_EE.c **** 
  27:Generated_Source\PSoC4/SPIM_EE.c **** #if(SPIM_EE_RX_SOFTWARE_BUF_ENABLED)
  28:Generated_Source\PSoC4/SPIM_EE.c ****     volatile uint8 SPIM_EE_rxBuffer[SPIM_EE_RX_BUFFER_SIZE];
  29:Generated_Source\PSoC4/SPIM_EE.c ****     volatile uint8 SPIM_EE_rxBufferFull;
  30:Generated_Source\PSoC4/SPIM_EE.c ****     volatile uint8 SPIM_EE_rxBufferRead;
ARM GAS  C:\Users\rolf\AppData\Local\Temp\ccdQYz7E.s 			page 2


  31:Generated_Source\PSoC4/SPIM_EE.c ****     volatile uint8 SPIM_EE_rxBufferWrite;
  32:Generated_Source\PSoC4/SPIM_EE.c **** #endif /* (SPIM_EE_RX_SOFTWARE_BUF_ENABLED) */
  33:Generated_Source\PSoC4/SPIM_EE.c **** 
  34:Generated_Source\PSoC4/SPIM_EE.c **** uint8 SPIM_EE_initVar = 0u;
  35:Generated_Source\PSoC4/SPIM_EE.c **** 
  36:Generated_Source\PSoC4/SPIM_EE.c **** volatile uint8 SPIM_EE_swStatusTx;
  37:Generated_Source\PSoC4/SPIM_EE.c **** volatile uint8 SPIM_EE_swStatusRx;
  38:Generated_Source\PSoC4/SPIM_EE.c **** 
  39:Generated_Source\PSoC4/SPIM_EE.c **** 
  40:Generated_Source\PSoC4/SPIM_EE.c **** /*******************************************************************************
  41:Generated_Source\PSoC4/SPIM_EE.c **** * Function Name: SPIM_EE_Init
  42:Generated_Source\PSoC4/SPIM_EE.c **** ********************************************************************************
  43:Generated_Source\PSoC4/SPIM_EE.c **** *
  44:Generated_Source\PSoC4/SPIM_EE.c **** * Summary:
  45:Generated_Source\PSoC4/SPIM_EE.c **** *  Inits/Restores default SPIM configuration provided with customizer.
  46:Generated_Source\PSoC4/SPIM_EE.c **** *
  47:Generated_Source\PSoC4/SPIM_EE.c **** * Parameters:
  48:Generated_Source\PSoC4/SPIM_EE.c **** *  None.
  49:Generated_Source\PSoC4/SPIM_EE.c **** *
  50:Generated_Source\PSoC4/SPIM_EE.c **** * Return:
  51:Generated_Source\PSoC4/SPIM_EE.c **** *  None.
  52:Generated_Source\PSoC4/SPIM_EE.c **** *
  53:Generated_Source\PSoC4/SPIM_EE.c **** * Side Effects:
  54:Generated_Source\PSoC4/SPIM_EE.c **** *  When this function is called it initializes all of the necessary parameters
  55:Generated_Source\PSoC4/SPIM_EE.c **** *  for execution. i.e. setting the initial interrupt mask, configuring the
  56:Generated_Source\PSoC4/SPIM_EE.c **** *  interrupt service routine, configuring the bit-counter parameters and
  57:Generated_Source\PSoC4/SPIM_EE.c **** *  clearing the FIFO and Status Register.
  58:Generated_Source\PSoC4/SPIM_EE.c **** *
  59:Generated_Source\PSoC4/SPIM_EE.c **** * Reentrant:
  60:Generated_Source\PSoC4/SPIM_EE.c **** *  No.
  61:Generated_Source\PSoC4/SPIM_EE.c **** *
  62:Generated_Source\PSoC4/SPIM_EE.c **** *******************************************************************************/
  63:Generated_Source\PSoC4/SPIM_EE.c **** void SPIM_EE_Init(void) 
  64:Generated_Source\PSoC4/SPIM_EE.c **** {
  65:Generated_Source\PSoC4/SPIM_EE.c ****     /* Initialize the Bit counter */
  66:Generated_Source\PSoC4/SPIM_EE.c ****     SPIM_EE_COUNTER_PERIOD_REG = SPIM_EE_BITCTR_INIT;
  67:Generated_Source\PSoC4/SPIM_EE.c **** 
  68:Generated_Source\PSoC4/SPIM_EE.c ****     /* Init TX ISR  */
  69:Generated_Source\PSoC4/SPIM_EE.c ****     #if(0u != SPIM_EE_INTERNAL_TX_INT_ENABLED)
  70:Generated_Source\PSoC4/SPIM_EE.c ****         CyIntDisable         (SPIM_EE_TX_ISR_NUMBER);
  71:Generated_Source\PSoC4/SPIM_EE.c ****         CyIntSetPriority     (SPIM_EE_TX_ISR_NUMBER,  SPIM_EE_TX_ISR_PRIORITY);
  72:Generated_Source\PSoC4/SPIM_EE.c ****         (void) CyIntSetVector(SPIM_EE_TX_ISR_NUMBER, &SPIM_EE_TX_ISR);
  73:Generated_Source\PSoC4/SPIM_EE.c ****     #endif /* (0u != SPIM_EE_INTERNAL_TX_INT_ENABLED) */
  74:Generated_Source\PSoC4/SPIM_EE.c **** 
  75:Generated_Source\PSoC4/SPIM_EE.c ****     /* Init RX ISR  */
  76:Generated_Source\PSoC4/SPIM_EE.c ****     #if(0u != SPIM_EE_INTERNAL_RX_INT_ENABLED)
  77:Generated_Source\PSoC4/SPIM_EE.c ****         CyIntDisable         (SPIM_EE_RX_ISR_NUMBER);
  78:Generated_Source\PSoC4/SPIM_EE.c ****         CyIntSetPriority     (SPIM_EE_RX_ISR_NUMBER,  SPIM_EE_RX_ISR_PRIORITY);
  79:Generated_Source\PSoC4/SPIM_EE.c ****         (void) CyIntSetVector(SPIM_EE_RX_ISR_NUMBER, &SPIM_EE_RX_ISR);
  80:Generated_Source\PSoC4/SPIM_EE.c ****     #endif /* (0u != SPIM_EE_INTERNAL_RX_INT_ENABLED) */
  81:Generated_Source\PSoC4/SPIM_EE.c **** 
  82:Generated_Source\PSoC4/SPIM_EE.c ****     /* Clear any stray data from the RX and TX FIFO */
  83:Generated_Source\PSoC4/SPIM_EE.c ****     SPIM_EE_ClearFIFO();
  84:Generated_Source\PSoC4/SPIM_EE.c **** 
  85:Generated_Source\PSoC4/SPIM_EE.c ****     #if(SPIM_EE_RX_SOFTWARE_BUF_ENABLED)
  86:Generated_Source\PSoC4/SPIM_EE.c ****         SPIM_EE_rxBufferFull  = 0u;
  87:Generated_Source\PSoC4/SPIM_EE.c ****         SPIM_EE_rxBufferRead  = 0u;
ARM GAS  C:\Users\rolf\AppData\Local\Temp\ccdQYz7E.s 			page 3


  88:Generated_Source\PSoC4/SPIM_EE.c ****         SPIM_EE_rxBufferWrite = 0u;
  89:Generated_Source\PSoC4/SPIM_EE.c ****     #endif /* (SPIM_EE_RX_SOFTWARE_BUF_ENABLED) */
  90:Generated_Source\PSoC4/SPIM_EE.c **** 
  91:Generated_Source\PSoC4/SPIM_EE.c ****     #if(SPIM_EE_TX_SOFTWARE_BUF_ENABLED)
  92:Generated_Source\PSoC4/SPIM_EE.c ****         SPIM_EE_txBufferFull  = 0u;
  93:Generated_Source\PSoC4/SPIM_EE.c ****         SPIM_EE_txBufferRead  = 0u;
  94:Generated_Source\PSoC4/SPIM_EE.c ****         SPIM_EE_txBufferWrite = 0u;
  95:Generated_Source\PSoC4/SPIM_EE.c ****     #endif /* (SPIM_EE_TX_SOFTWARE_BUF_ENABLED) */
  96:Generated_Source\PSoC4/SPIM_EE.c **** 
  97:Generated_Source\PSoC4/SPIM_EE.c ****     (void) SPIM_EE_ReadTxStatus(); /* Clear Tx status and swStatusTx */
  98:Generated_Source\PSoC4/SPIM_EE.c ****     (void) SPIM_EE_ReadRxStatus(); /* Clear Rx status and swStatusRx */
  99:Generated_Source\PSoC4/SPIM_EE.c **** 
 100:Generated_Source\PSoC4/SPIM_EE.c ****     /* Configure TX and RX interrupt mask */
 101:Generated_Source\PSoC4/SPIM_EE.c ****     SPIM_EE_TX_STATUS_MASK_REG = SPIM_EE_TX_INIT_INTERRUPTS_MASK;
 102:Generated_Source\PSoC4/SPIM_EE.c ****     SPIM_EE_RX_STATUS_MASK_REG = SPIM_EE_RX_INIT_INTERRUPTS_MASK;
 103:Generated_Source\PSoC4/SPIM_EE.c **** }
 104:Generated_Source\PSoC4/SPIM_EE.c **** 
 105:Generated_Source\PSoC4/SPIM_EE.c **** 
 106:Generated_Source\PSoC4/SPIM_EE.c **** /*******************************************************************************
 107:Generated_Source\PSoC4/SPIM_EE.c **** * Function Name: SPIM_EE_Enable
 108:Generated_Source\PSoC4/SPIM_EE.c **** ********************************************************************************
 109:Generated_Source\PSoC4/SPIM_EE.c **** *
 110:Generated_Source\PSoC4/SPIM_EE.c **** * Summary:
 111:Generated_Source\PSoC4/SPIM_EE.c **** *  Enable SPIM component.
 112:Generated_Source\PSoC4/SPIM_EE.c **** *
 113:Generated_Source\PSoC4/SPIM_EE.c **** * Parameters:
 114:Generated_Source\PSoC4/SPIM_EE.c **** *  None.
 115:Generated_Source\PSoC4/SPIM_EE.c **** *
 116:Generated_Source\PSoC4/SPIM_EE.c **** * Return:
 117:Generated_Source\PSoC4/SPIM_EE.c **** *  None.
 118:Generated_Source\PSoC4/SPIM_EE.c **** *
 119:Generated_Source\PSoC4/SPIM_EE.c **** *******************************************************************************/
 120:Generated_Source\PSoC4/SPIM_EE.c **** void SPIM_EE_Enable(void) 
 121:Generated_Source\PSoC4/SPIM_EE.c **** {
  28              		.loc 1 121 0
  29              		.cfi_startproc
  30              		@ args = 0, pretend = 0, frame = 0
  31              		@ frame_needed = 0, uses_anonymous_args = 0
  32 0000 10B5     		push	{r4, lr}
  33              		.cfi_def_cfa_offset 8
  34              		.cfi_offset 4, -8
  35              		.cfi_offset 14, -4
 122:Generated_Source\PSoC4/SPIM_EE.c ****     uint8 enableInterrupts;
 123:Generated_Source\PSoC4/SPIM_EE.c **** 
 124:Generated_Source\PSoC4/SPIM_EE.c ****     enableInterrupts = CyEnterCriticalSection();
  36              		.loc 1 124 0
  37 0002 FFF7FEFF 		bl	CyEnterCriticalSection
  38              	.LVL0:
 125:Generated_Source\PSoC4/SPIM_EE.c ****     SPIM_EE_COUNTER_CONTROL_REG |= SPIM_EE_CNTR_ENABLE;
  39              		.loc 1 125 0
  40 0006 0B4A     		ldr	r2, .L2
  41 0008 1178     		ldrb	r1, [r2]
  42 000a 2023     		movs	r3, #32
  43 000c 0B43     		orrs	r3, r1
  44 000e DBB2     		uxtb	r3, r3
  45 0010 1370     		strb	r3, [r2]
 126:Generated_Source\PSoC4/SPIM_EE.c ****     SPIM_EE_TX_STATUS_ACTL_REG  |= SPIM_EE_INT_ENABLE;
ARM GAS  C:\Users\rolf\AppData\Local\Temp\ccdQYz7E.s 			page 4


  46              		.loc 1 126 0
  47 0012 0949     		ldr	r1, .L2+4
  48 0014 0A78     		ldrb	r2, [r1]
  49 0016 1023     		movs	r3, #16
  50 0018 1A43     		orrs	r2, r3
  51 001a D2B2     		uxtb	r2, r2
  52 001c 0A70     		strb	r2, [r1]
 127:Generated_Source\PSoC4/SPIM_EE.c ****     SPIM_EE_RX_STATUS_ACTL_REG  |= SPIM_EE_INT_ENABLE;
  53              		.loc 1 127 0
  54 001e 074A     		ldr	r2, .L2+8
  55 0020 1178     		ldrb	r1, [r2]
  56 0022 0B43     		orrs	r3, r1
  57 0024 DBB2     		uxtb	r3, r3
  58 0026 1370     		strb	r3, [r2]
 128:Generated_Source\PSoC4/SPIM_EE.c ****     CyExitCriticalSection(enableInterrupts);
  59              		.loc 1 128 0
  60 0028 FFF7FEFF 		bl	CyExitCriticalSection
  61              	.LVL1:
 129:Generated_Source\PSoC4/SPIM_EE.c **** 
 130:Generated_Source\PSoC4/SPIM_EE.c ****     #if(0u != SPIM_EE_INTERNAL_CLOCK)
 131:Generated_Source\PSoC4/SPIM_EE.c ****         SPIM_EE_IntClock_Enable();
  62              		.loc 1 131 0
  63 002c FF20     		movs	r0, #255
  64 002e FFF7FEFF 		bl	SPIM_EE_IntClock_StartEx
  65              	.LVL2:
 132:Generated_Source\PSoC4/SPIM_EE.c ****     #endif /* (0u != SPIM_EE_INTERNAL_CLOCK) */
 133:Generated_Source\PSoC4/SPIM_EE.c **** 
 134:Generated_Source\PSoC4/SPIM_EE.c ****     SPIM_EE_EnableTxInt();
 135:Generated_Source\PSoC4/SPIM_EE.c ****     SPIM_EE_EnableRxInt();
 136:Generated_Source\PSoC4/SPIM_EE.c **** }
  66              		.loc 1 136 0
  67              		@ sp needed
  68 0032 10BD     		pop	{r4, pc}
  69              	.L3:
  70              		.align	2
  71              	.L2:
  72 0034 93000F40 		.word	1074725011
  73 0038 92000F40 		.word	1074725010
  74 003c 96000F40 		.word	1074725014
  75              		.cfi_endproc
  76              	.LFE2:
  77              		.size	SPIM_EE_Enable, .-SPIM_EE_Enable
  78              		.section	.text.SPIM_EE_Stop,"ax",%progbits
  79              		.align	2
  80              		.global	SPIM_EE_Stop
  81              		.code	16
  82              		.thumb_func
  83              		.type	SPIM_EE_Stop, %function
  84              	SPIM_EE_Stop:
  85              	.LFB4:
 137:Generated_Source\PSoC4/SPIM_EE.c **** 
 138:Generated_Source\PSoC4/SPIM_EE.c **** 
 139:Generated_Source\PSoC4/SPIM_EE.c **** /*******************************************************************************
 140:Generated_Source\PSoC4/SPIM_EE.c **** * Function Name: SPIM_EE_Start
 141:Generated_Source\PSoC4/SPIM_EE.c **** ********************************************************************************
 142:Generated_Source\PSoC4/SPIM_EE.c **** *
 143:Generated_Source\PSoC4/SPIM_EE.c **** * Summary:
ARM GAS  C:\Users\rolf\AppData\Local\Temp\ccdQYz7E.s 			page 5


 144:Generated_Source\PSoC4/SPIM_EE.c **** *  Initialize and Enable the SPI Master component.
 145:Generated_Source\PSoC4/SPIM_EE.c **** *
 146:Generated_Source\PSoC4/SPIM_EE.c **** * Parameters:
 147:Generated_Source\PSoC4/SPIM_EE.c **** *  None.
 148:Generated_Source\PSoC4/SPIM_EE.c **** *
 149:Generated_Source\PSoC4/SPIM_EE.c **** * Return:
 150:Generated_Source\PSoC4/SPIM_EE.c **** *  None.
 151:Generated_Source\PSoC4/SPIM_EE.c **** *
 152:Generated_Source\PSoC4/SPIM_EE.c **** * Global variables:
 153:Generated_Source\PSoC4/SPIM_EE.c **** *  SPIM_EE_initVar - used to check initial configuration, modified on
 154:Generated_Source\PSoC4/SPIM_EE.c **** *  first function call.
 155:Generated_Source\PSoC4/SPIM_EE.c **** *
 156:Generated_Source\PSoC4/SPIM_EE.c **** * Theory:
 157:Generated_Source\PSoC4/SPIM_EE.c **** *  Enable the clock input to enable operation.
 158:Generated_Source\PSoC4/SPIM_EE.c **** *
 159:Generated_Source\PSoC4/SPIM_EE.c **** * Reentrant:
 160:Generated_Source\PSoC4/SPIM_EE.c **** *  No.
 161:Generated_Source\PSoC4/SPIM_EE.c **** *
 162:Generated_Source\PSoC4/SPIM_EE.c **** *******************************************************************************/
 163:Generated_Source\PSoC4/SPIM_EE.c **** void SPIM_EE_Start(void) 
 164:Generated_Source\PSoC4/SPIM_EE.c **** {
 165:Generated_Source\PSoC4/SPIM_EE.c ****     if(0u == SPIM_EE_initVar)
 166:Generated_Source\PSoC4/SPIM_EE.c ****     {
 167:Generated_Source\PSoC4/SPIM_EE.c ****         SPIM_EE_Init();
 168:Generated_Source\PSoC4/SPIM_EE.c ****         SPIM_EE_initVar = 1u;
 169:Generated_Source\PSoC4/SPIM_EE.c ****     }
 170:Generated_Source\PSoC4/SPIM_EE.c **** 
 171:Generated_Source\PSoC4/SPIM_EE.c ****     SPIM_EE_Enable();
 172:Generated_Source\PSoC4/SPIM_EE.c **** }
 173:Generated_Source\PSoC4/SPIM_EE.c **** 
 174:Generated_Source\PSoC4/SPIM_EE.c **** 
 175:Generated_Source\PSoC4/SPIM_EE.c **** /*******************************************************************************
 176:Generated_Source\PSoC4/SPIM_EE.c **** * Function Name: SPIM_EE_Stop
 177:Generated_Source\PSoC4/SPIM_EE.c **** ********************************************************************************
 178:Generated_Source\PSoC4/SPIM_EE.c **** *
 179:Generated_Source\PSoC4/SPIM_EE.c **** * Summary:
 180:Generated_Source\PSoC4/SPIM_EE.c **** *  Disable the SPI Master component.
 181:Generated_Source\PSoC4/SPIM_EE.c **** *
 182:Generated_Source\PSoC4/SPIM_EE.c **** * Parameters:
 183:Generated_Source\PSoC4/SPIM_EE.c **** *  None.
 184:Generated_Source\PSoC4/SPIM_EE.c **** *
 185:Generated_Source\PSoC4/SPIM_EE.c **** * Return:
 186:Generated_Source\PSoC4/SPIM_EE.c **** *  None.
 187:Generated_Source\PSoC4/SPIM_EE.c **** *
 188:Generated_Source\PSoC4/SPIM_EE.c **** * Theory:
 189:Generated_Source\PSoC4/SPIM_EE.c **** *  Disable the clock input to enable operation.
 190:Generated_Source\PSoC4/SPIM_EE.c **** *
 191:Generated_Source\PSoC4/SPIM_EE.c **** *******************************************************************************/
 192:Generated_Source\PSoC4/SPIM_EE.c **** void SPIM_EE_Stop(void) 
 193:Generated_Source\PSoC4/SPIM_EE.c **** {
  86              		.loc 1 193 0
  87              		.cfi_startproc
  88              		@ args = 0, pretend = 0, frame = 0
  89              		@ frame_needed = 0, uses_anonymous_args = 0
  90 0000 10B5     		push	{r4, lr}
  91              		.cfi_def_cfa_offset 8
  92              		.cfi_offset 4, -8
ARM GAS  C:\Users\rolf\AppData\Local\Temp\ccdQYz7E.s 			page 6


  93              		.cfi_offset 14, -4
 194:Generated_Source\PSoC4/SPIM_EE.c ****     uint8 enableInterrupts;
 195:Generated_Source\PSoC4/SPIM_EE.c **** 
 196:Generated_Source\PSoC4/SPIM_EE.c ****     enableInterrupts = CyEnterCriticalSection();
  94              		.loc 1 196 0
  95 0002 FFF7FEFF 		bl	CyEnterCriticalSection
  96              	.LVL3:
 197:Generated_Source\PSoC4/SPIM_EE.c ****     SPIM_EE_TX_STATUS_ACTL_REG &= ((uint8) ~SPIM_EE_INT_ENABLE);
  97              		.loc 1 197 0
  98 0006 074A     		ldr	r2, .L5
  99 0008 1378     		ldrb	r3, [r2]
 100 000a 1021     		movs	r1, #16
 101 000c 8B43     		bics	r3, r1
 102 000e 1370     		strb	r3, [r2]
 198:Generated_Source\PSoC4/SPIM_EE.c ****     SPIM_EE_RX_STATUS_ACTL_REG &= ((uint8) ~SPIM_EE_INT_ENABLE);
 103              		.loc 1 198 0
 104 0010 054A     		ldr	r2, .L5+4
 105 0012 1378     		ldrb	r3, [r2]
 106 0014 8B43     		bics	r3, r1
 107 0016 1370     		strb	r3, [r2]
 199:Generated_Source\PSoC4/SPIM_EE.c ****     CyExitCriticalSection(enableInterrupts);
 108              		.loc 1 199 0
 109 0018 FFF7FEFF 		bl	CyExitCriticalSection
 110              	.LVL4:
 200:Generated_Source\PSoC4/SPIM_EE.c **** 
 201:Generated_Source\PSoC4/SPIM_EE.c ****     #if(0u != SPIM_EE_INTERNAL_CLOCK)
 202:Generated_Source\PSoC4/SPIM_EE.c ****         SPIM_EE_IntClock_Disable();
 111              		.loc 1 202 0
 112 001c FFF7FEFF 		bl	SPIM_EE_IntClock_Stop
 113              	.LVL5:
 203:Generated_Source\PSoC4/SPIM_EE.c ****     #endif /* (0u != SPIM_EE_INTERNAL_CLOCK) */
 204:Generated_Source\PSoC4/SPIM_EE.c **** 
 205:Generated_Source\PSoC4/SPIM_EE.c ****     SPIM_EE_DisableTxInt();
 206:Generated_Source\PSoC4/SPIM_EE.c ****     SPIM_EE_DisableRxInt();
 207:Generated_Source\PSoC4/SPIM_EE.c **** }
 114              		.loc 1 207 0
 115              		@ sp needed
 116 0020 10BD     		pop	{r4, pc}
 117              	.L6:
 118 0022 C046     		.align	2
 119              	.L5:
 120 0024 92000F40 		.word	1074725010
 121 0028 96000F40 		.word	1074725014
 122              		.cfi_endproc
 123              	.LFE4:
 124              		.size	SPIM_EE_Stop, .-SPIM_EE_Stop
 125              		.section	.text.SPIM_EE_EnableTxInt,"ax",%progbits
 126              		.align	2
 127              		.global	SPIM_EE_EnableTxInt
 128              		.code	16
 129              		.thumb_func
 130              		.type	SPIM_EE_EnableTxInt, %function
 131              	SPIM_EE_EnableTxInt:
 132              	.LFB5:
 208:Generated_Source\PSoC4/SPIM_EE.c **** 
 209:Generated_Source\PSoC4/SPIM_EE.c **** 
 210:Generated_Source\PSoC4/SPIM_EE.c **** /*******************************************************************************
ARM GAS  C:\Users\rolf\AppData\Local\Temp\ccdQYz7E.s 			page 7


 211:Generated_Source\PSoC4/SPIM_EE.c **** * Function Name: SPIM_EE_EnableTxInt
 212:Generated_Source\PSoC4/SPIM_EE.c **** ********************************************************************************
 213:Generated_Source\PSoC4/SPIM_EE.c **** *
 214:Generated_Source\PSoC4/SPIM_EE.c **** * Summary:
 215:Generated_Source\PSoC4/SPIM_EE.c **** *  Enable internal Tx interrupt generation.
 216:Generated_Source\PSoC4/SPIM_EE.c **** *
 217:Generated_Source\PSoC4/SPIM_EE.c **** * Parameters:
 218:Generated_Source\PSoC4/SPIM_EE.c **** *  None.
 219:Generated_Source\PSoC4/SPIM_EE.c **** *
 220:Generated_Source\PSoC4/SPIM_EE.c **** * Return:
 221:Generated_Source\PSoC4/SPIM_EE.c **** *  None.
 222:Generated_Source\PSoC4/SPIM_EE.c **** *
 223:Generated_Source\PSoC4/SPIM_EE.c **** * Theory:
 224:Generated_Source\PSoC4/SPIM_EE.c **** *  Enable the internal Tx interrupt output -or- the interrupt component itself.
 225:Generated_Source\PSoC4/SPIM_EE.c **** *
 226:Generated_Source\PSoC4/SPIM_EE.c **** *******************************************************************************/
 227:Generated_Source\PSoC4/SPIM_EE.c **** void SPIM_EE_EnableTxInt(void) 
 228:Generated_Source\PSoC4/SPIM_EE.c **** {
 133              		.loc 1 228 0
 134              		.cfi_startproc
 135              		@ args = 0, pretend = 0, frame = 0
 136              		@ frame_needed = 0, uses_anonymous_args = 0
 137              		@ link register save eliminated.
 229:Generated_Source\PSoC4/SPIM_EE.c ****     #if(0u != SPIM_EE_INTERNAL_TX_INT_ENABLED)
 230:Generated_Source\PSoC4/SPIM_EE.c ****         CyIntEnable(SPIM_EE_TX_ISR_NUMBER);
 231:Generated_Source\PSoC4/SPIM_EE.c ****     #endif /* (0u != SPIM_EE_INTERNAL_TX_INT_ENABLED) */
 232:Generated_Source\PSoC4/SPIM_EE.c **** }
 138              		.loc 1 232 0
 139              		@ sp needed
 140 0000 7047     		bx	lr
 141              		.cfi_endproc
 142              	.LFE5:
 143              		.size	SPIM_EE_EnableTxInt, .-SPIM_EE_EnableTxInt
 144 0002 C046     		.section	.text.SPIM_EE_EnableRxInt,"ax",%progbits
 145              		.align	2
 146              		.global	SPIM_EE_EnableRxInt
 147              		.code	16
 148              		.thumb_func
 149              		.type	SPIM_EE_EnableRxInt, %function
 150              	SPIM_EE_EnableRxInt:
 151              	.LFB6:
 233:Generated_Source\PSoC4/SPIM_EE.c **** 
 234:Generated_Source\PSoC4/SPIM_EE.c **** 
 235:Generated_Source\PSoC4/SPIM_EE.c **** /*******************************************************************************
 236:Generated_Source\PSoC4/SPIM_EE.c **** * Function Name: SPIM_EE_EnableRxInt
 237:Generated_Source\PSoC4/SPIM_EE.c **** ********************************************************************************
 238:Generated_Source\PSoC4/SPIM_EE.c **** *
 239:Generated_Source\PSoC4/SPIM_EE.c **** * Summary:
 240:Generated_Source\PSoC4/SPIM_EE.c **** *  Enable internal Rx interrupt generation.
 241:Generated_Source\PSoC4/SPIM_EE.c **** *
 242:Generated_Source\PSoC4/SPIM_EE.c **** * Parameters:
 243:Generated_Source\PSoC4/SPIM_EE.c **** *  None.
 244:Generated_Source\PSoC4/SPIM_EE.c **** *
 245:Generated_Source\PSoC4/SPIM_EE.c **** * Return:
 246:Generated_Source\PSoC4/SPIM_EE.c **** *  None.
 247:Generated_Source\PSoC4/SPIM_EE.c **** *
 248:Generated_Source\PSoC4/SPIM_EE.c **** * Theory:
ARM GAS  C:\Users\rolf\AppData\Local\Temp\ccdQYz7E.s 			page 8


 249:Generated_Source\PSoC4/SPIM_EE.c **** *  Enable the internal Rx interrupt output -or- the interrupt component itself.
 250:Generated_Source\PSoC4/SPIM_EE.c **** *
 251:Generated_Source\PSoC4/SPIM_EE.c **** *******************************************************************************/
 252:Generated_Source\PSoC4/SPIM_EE.c **** void SPIM_EE_EnableRxInt(void) 
 253:Generated_Source\PSoC4/SPIM_EE.c **** {
 152              		.loc 1 253 0
 153              		.cfi_startproc
 154              		@ args = 0, pretend = 0, frame = 0
 155              		@ frame_needed = 0, uses_anonymous_args = 0
 156              		@ link register save eliminated.
 254:Generated_Source\PSoC4/SPIM_EE.c ****     #if(0u != SPIM_EE_INTERNAL_RX_INT_ENABLED)
 255:Generated_Source\PSoC4/SPIM_EE.c ****         CyIntEnable(SPIM_EE_RX_ISR_NUMBER);
 256:Generated_Source\PSoC4/SPIM_EE.c ****     #endif /* (0u != SPIM_EE_INTERNAL_RX_INT_ENABLED) */
 257:Generated_Source\PSoC4/SPIM_EE.c **** }
 157              		.loc 1 257 0
 158              		@ sp needed
 159 0000 7047     		bx	lr
 160              		.cfi_endproc
 161              	.LFE6:
 162              		.size	SPIM_EE_EnableRxInt, .-SPIM_EE_EnableRxInt
 163 0002 C046     		.section	.text.SPIM_EE_DisableTxInt,"ax",%progbits
 164              		.align	2
 165              		.global	SPIM_EE_DisableTxInt
 166              		.code	16
 167              		.thumb_func
 168              		.type	SPIM_EE_DisableTxInt, %function
 169              	SPIM_EE_DisableTxInt:
 170              	.LFB7:
 258:Generated_Source\PSoC4/SPIM_EE.c **** 
 259:Generated_Source\PSoC4/SPIM_EE.c **** 
 260:Generated_Source\PSoC4/SPIM_EE.c **** /*******************************************************************************
 261:Generated_Source\PSoC4/SPIM_EE.c **** * Function Name: SPIM_EE_DisableTxInt
 262:Generated_Source\PSoC4/SPIM_EE.c **** ********************************************************************************
 263:Generated_Source\PSoC4/SPIM_EE.c **** *
 264:Generated_Source\PSoC4/SPIM_EE.c **** * Summary:
 265:Generated_Source\PSoC4/SPIM_EE.c **** *  Disable internal Tx interrupt generation.
 266:Generated_Source\PSoC4/SPIM_EE.c **** *
 267:Generated_Source\PSoC4/SPIM_EE.c **** * Parameters:
 268:Generated_Source\PSoC4/SPIM_EE.c **** *  None.
 269:Generated_Source\PSoC4/SPIM_EE.c **** *
 270:Generated_Source\PSoC4/SPIM_EE.c **** * Return:
 271:Generated_Source\PSoC4/SPIM_EE.c **** *  None.
 272:Generated_Source\PSoC4/SPIM_EE.c **** *
 273:Generated_Source\PSoC4/SPIM_EE.c **** * Theory:
 274:Generated_Source\PSoC4/SPIM_EE.c **** *  Disable the internal Tx interrupt output -or- the interrupt component itself.
 275:Generated_Source\PSoC4/SPIM_EE.c **** *
 276:Generated_Source\PSoC4/SPIM_EE.c **** *******************************************************************************/
 277:Generated_Source\PSoC4/SPIM_EE.c **** void SPIM_EE_DisableTxInt(void) 
 278:Generated_Source\PSoC4/SPIM_EE.c **** {
 171              		.loc 1 278 0
 172              		.cfi_startproc
 173              		@ args = 0, pretend = 0, frame = 0
 174              		@ frame_needed = 0, uses_anonymous_args = 0
 175              		@ link register save eliminated.
 279:Generated_Source\PSoC4/SPIM_EE.c ****     #if(0u != SPIM_EE_INTERNAL_TX_INT_ENABLED)
 280:Generated_Source\PSoC4/SPIM_EE.c ****         CyIntDisable(SPIM_EE_TX_ISR_NUMBER);
 281:Generated_Source\PSoC4/SPIM_EE.c ****     #endif /* (0u != SPIM_EE_INTERNAL_TX_INT_ENABLED) */
ARM GAS  C:\Users\rolf\AppData\Local\Temp\ccdQYz7E.s 			page 9


 282:Generated_Source\PSoC4/SPIM_EE.c **** }
 176              		.loc 1 282 0
 177              		@ sp needed
 178 0000 7047     		bx	lr
 179              		.cfi_endproc
 180              	.LFE7:
 181              		.size	SPIM_EE_DisableTxInt, .-SPIM_EE_DisableTxInt
 182 0002 C046     		.section	.text.SPIM_EE_DisableRxInt,"ax",%progbits
 183              		.align	2
 184              		.global	SPIM_EE_DisableRxInt
 185              		.code	16
 186              		.thumb_func
 187              		.type	SPIM_EE_DisableRxInt, %function
 188              	SPIM_EE_DisableRxInt:
 189              	.LFB8:
 283:Generated_Source\PSoC4/SPIM_EE.c **** 
 284:Generated_Source\PSoC4/SPIM_EE.c **** 
 285:Generated_Source\PSoC4/SPIM_EE.c **** /*******************************************************************************
 286:Generated_Source\PSoC4/SPIM_EE.c **** * Function Name: SPIM_EE_DisableRxInt
 287:Generated_Source\PSoC4/SPIM_EE.c **** ********************************************************************************
 288:Generated_Source\PSoC4/SPIM_EE.c **** *
 289:Generated_Source\PSoC4/SPIM_EE.c **** * Summary:
 290:Generated_Source\PSoC4/SPIM_EE.c **** *  Disable internal Rx interrupt generation.
 291:Generated_Source\PSoC4/SPIM_EE.c **** *
 292:Generated_Source\PSoC4/SPIM_EE.c **** * Parameters:
 293:Generated_Source\PSoC4/SPIM_EE.c **** *  None.
 294:Generated_Source\PSoC4/SPIM_EE.c **** *
 295:Generated_Source\PSoC4/SPIM_EE.c **** * Return:
 296:Generated_Source\PSoC4/SPIM_EE.c **** *  None.
 297:Generated_Source\PSoC4/SPIM_EE.c **** *
 298:Generated_Source\PSoC4/SPIM_EE.c **** * Theory:
 299:Generated_Source\PSoC4/SPIM_EE.c **** *  Disable the internal Rx interrupt output -or- the interrupt component itself.
 300:Generated_Source\PSoC4/SPIM_EE.c **** *
 301:Generated_Source\PSoC4/SPIM_EE.c **** *******************************************************************************/
 302:Generated_Source\PSoC4/SPIM_EE.c **** void SPIM_EE_DisableRxInt(void) 
 303:Generated_Source\PSoC4/SPIM_EE.c **** {
 190              		.loc 1 303 0
 191              		.cfi_startproc
 192              		@ args = 0, pretend = 0, frame = 0
 193              		@ frame_needed = 0, uses_anonymous_args = 0
 194              		@ link register save eliminated.
 304:Generated_Source\PSoC4/SPIM_EE.c ****     #if(0u != SPIM_EE_INTERNAL_RX_INT_ENABLED)
 305:Generated_Source\PSoC4/SPIM_EE.c ****         CyIntDisable(SPIM_EE_RX_ISR_NUMBER);
 306:Generated_Source\PSoC4/SPIM_EE.c ****     #endif /* (0u != SPIM_EE_INTERNAL_RX_INT_ENABLED) */
 307:Generated_Source\PSoC4/SPIM_EE.c **** }
 195              		.loc 1 307 0
 196              		@ sp needed
 197 0000 7047     		bx	lr
 198              		.cfi_endproc
 199              	.LFE8:
 200              		.size	SPIM_EE_DisableRxInt, .-SPIM_EE_DisableRxInt
 201 0002 C046     		.section	.text.SPIM_EE_SetTxInterruptMode,"ax",%progbits
 202              		.align	2
 203              		.global	SPIM_EE_SetTxInterruptMode
 204              		.code	16
 205              		.thumb_func
 206              		.type	SPIM_EE_SetTxInterruptMode, %function
ARM GAS  C:\Users\rolf\AppData\Local\Temp\ccdQYz7E.s 			page 10


 207              	SPIM_EE_SetTxInterruptMode:
 208              	.LFB9:
 308:Generated_Source\PSoC4/SPIM_EE.c **** 
 309:Generated_Source\PSoC4/SPIM_EE.c **** 
 310:Generated_Source\PSoC4/SPIM_EE.c **** /*******************************************************************************
 311:Generated_Source\PSoC4/SPIM_EE.c **** * Function Name: SPIM_EE_SetTxInterruptMode
 312:Generated_Source\PSoC4/SPIM_EE.c **** ********************************************************************************
 313:Generated_Source\PSoC4/SPIM_EE.c **** *
 314:Generated_Source\PSoC4/SPIM_EE.c **** * Summary:
 315:Generated_Source\PSoC4/SPIM_EE.c **** *  Configure which status bits trigger an interrupt event.
 316:Generated_Source\PSoC4/SPIM_EE.c **** *
 317:Generated_Source\PSoC4/SPIM_EE.c **** * Parameters:
 318:Generated_Source\PSoC4/SPIM_EE.c **** *  intSrc: An or'd combination of the desired status bit masks (defined in the
 319:Generated_Source\PSoC4/SPIM_EE.c **** *  header file).
 320:Generated_Source\PSoC4/SPIM_EE.c **** *
 321:Generated_Source\PSoC4/SPIM_EE.c **** * Return:
 322:Generated_Source\PSoC4/SPIM_EE.c **** *  None.
 323:Generated_Source\PSoC4/SPIM_EE.c **** *
 324:Generated_Source\PSoC4/SPIM_EE.c **** * Theory:
 325:Generated_Source\PSoC4/SPIM_EE.c **** *  Enables the output of specific status bits to the interrupt controller.
 326:Generated_Source\PSoC4/SPIM_EE.c **** *
 327:Generated_Source\PSoC4/SPIM_EE.c **** *******************************************************************************/
 328:Generated_Source\PSoC4/SPIM_EE.c **** void SPIM_EE_SetTxInterruptMode(uint8 intSrc) 
 329:Generated_Source\PSoC4/SPIM_EE.c **** {
 209              		.loc 1 329 0
 210              		.cfi_startproc
 211              		@ args = 0, pretend = 0, frame = 0
 212              		@ frame_needed = 0, uses_anonymous_args = 0
 213              		@ link register save eliminated.
 214              	.LVL6:
 330:Generated_Source\PSoC4/SPIM_EE.c ****     SPIM_EE_TX_STATUS_MASK_REG = intSrc;
 215              		.loc 1 330 0
 216 0000 014B     		ldr	r3, .L12
 217 0002 1870     		strb	r0, [r3]
 331:Generated_Source\PSoC4/SPIM_EE.c **** }
 218              		.loc 1 331 0
 219              		@ sp needed
 220 0004 7047     		bx	lr
 221              	.L13:
 222 0006 C046     		.align	2
 223              	.L12:
 224 0008 82000F40 		.word	1074724994
 225              		.cfi_endproc
 226              	.LFE9:
 227              		.size	SPIM_EE_SetTxInterruptMode, .-SPIM_EE_SetTxInterruptMode
 228              		.section	.text.SPIM_EE_SetRxInterruptMode,"ax",%progbits
 229              		.align	2
 230              		.global	SPIM_EE_SetRxInterruptMode
 231              		.code	16
 232              		.thumb_func
 233              		.type	SPIM_EE_SetRxInterruptMode, %function
 234              	SPIM_EE_SetRxInterruptMode:
 235              	.LFB10:
 332:Generated_Source\PSoC4/SPIM_EE.c **** 
 333:Generated_Source\PSoC4/SPIM_EE.c **** 
 334:Generated_Source\PSoC4/SPIM_EE.c **** /*******************************************************************************
 335:Generated_Source\PSoC4/SPIM_EE.c **** * Function Name: SPIM_EE_SetRxInterruptMode
ARM GAS  C:\Users\rolf\AppData\Local\Temp\ccdQYz7E.s 			page 11


 336:Generated_Source\PSoC4/SPIM_EE.c **** ********************************************************************************
 337:Generated_Source\PSoC4/SPIM_EE.c **** *
 338:Generated_Source\PSoC4/SPIM_EE.c **** * Summary:
 339:Generated_Source\PSoC4/SPIM_EE.c **** *  Configure which status bits trigger an interrupt event.
 340:Generated_Source\PSoC4/SPIM_EE.c **** *
 341:Generated_Source\PSoC4/SPIM_EE.c **** * Parameters:
 342:Generated_Source\PSoC4/SPIM_EE.c **** *  intSrc: An or'd combination of the desired status bit masks (defined in the
 343:Generated_Source\PSoC4/SPIM_EE.c **** *  header file).
 344:Generated_Source\PSoC4/SPIM_EE.c **** *
 345:Generated_Source\PSoC4/SPIM_EE.c **** * Return:
 346:Generated_Source\PSoC4/SPIM_EE.c **** *  None.
 347:Generated_Source\PSoC4/SPIM_EE.c **** *
 348:Generated_Source\PSoC4/SPIM_EE.c **** * Theory:
 349:Generated_Source\PSoC4/SPIM_EE.c **** *  Enables the output of specific status bits to the interrupt controller.
 350:Generated_Source\PSoC4/SPIM_EE.c **** *
 351:Generated_Source\PSoC4/SPIM_EE.c **** *******************************************************************************/
 352:Generated_Source\PSoC4/SPIM_EE.c **** void SPIM_EE_SetRxInterruptMode(uint8 intSrc) 
 353:Generated_Source\PSoC4/SPIM_EE.c **** {
 236              		.loc 1 353 0
 237              		.cfi_startproc
 238              		@ args = 0, pretend = 0, frame = 0
 239              		@ frame_needed = 0, uses_anonymous_args = 0
 240              		@ link register save eliminated.
 241              	.LVL7:
 354:Generated_Source\PSoC4/SPIM_EE.c ****     SPIM_EE_RX_STATUS_MASK_REG  = intSrc;
 242              		.loc 1 354 0
 243 0000 014B     		ldr	r3, .L15
 244 0002 1870     		strb	r0, [r3]
 355:Generated_Source\PSoC4/SPIM_EE.c **** }
 245              		.loc 1 355 0
 246              		@ sp needed
 247 0004 7047     		bx	lr
 248              	.L16:
 249 0006 C046     		.align	2
 250              	.L15:
 251 0008 86000F40 		.word	1074724998
 252              		.cfi_endproc
 253              	.LFE10:
 254              		.size	SPIM_EE_SetRxInterruptMode, .-SPIM_EE_SetRxInterruptMode
 255              		.section	.text.SPIM_EE_ReadTxStatus,"ax",%progbits
 256              		.align	2
 257              		.global	SPIM_EE_ReadTxStatus
 258              		.code	16
 259              		.thumb_func
 260              		.type	SPIM_EE_ReadTxStatus, %function
 261              	SPIM_EE_ReadTxStatus:
 262              	.LFB11:
 356:Generated_Source\PSoC4/SPIM_EE.c **** 
 357:Generated_Source\PSoC4/SPIM_EE.c **** 
 358:Generated_Source\PSoC4/SPIM_EE.c **** /*******************************************************************************
 359:Generated_Source\PSoC4/SPIM_EE.c **** * Function Name: SPIM_EE_ReadTxStatus
 360:Generated_Source\PSoC4/SPIM_EE.c **** ********************************************************************************
 361:Generated_Source\PSoC4/SPIM_EE.c **** *
 362:Generated_Source\PSoC4/SPIM_EE.c **** * Summary:
 363:Generated_Source\PSoC4/SPIM_EE.c **** *  Read the Tx status register for the component.
 364:Generated_Source\PSoC4/SPIM_EE.c **** *
 365:Generated_Source\PSoC4/SPIM_EE.c **** * Parameters:
ARM GAS  C:\Users\rolf\AppData\Local\Temp\ccdQYz7E.s 			page 12


 366:Generated_Source\PSoC4/SPIM_EE.c **** *  None.
 367:Generated_Source\PSoC4/SPIM_EE.c **** *
 368:Generated_Source\PSoC4/SPIM_EE.c **** * Return:
 369:Generated_Source\PSoC4/SPIM_EE.c **** *  Contents of the Tx status register.
 370:Generated_Source\PSoC4/SPIM_EE.c **** *
 371:Generated_Source\PSoC4/SPIM_EE.c **** * Global variables:
 372:Generated_Source\PSoC4/SPIM_EE.c **** *  SPIM_EE_swStatusTx - used to store in software status register,
 373:Generated_Source\PSoC4/SPIM_EE.c **** *  modified every function call - resets to zero.
 374:Generated_Source\PSoC4/SPIM_EE.c **** *
 375:Generated_Source\PSoC4/SPIM_EE.c **** * Theory:
 376:Generated_Source\PSoC4/SPIM_EE.c **** *  Allows the user and the API to read the Tx status register for error
 377:Generated_Source\PSoC4/SPIM_EE.c **** *  detection and flow control.
 378:Generated_Source\PSoC4/SPIM_EE.c **** *
 379:Generated_Source\PSoC4/SPIM_EE.c **** * Side Effects:
 380:Generated_Source\PSoC4/SPIM_EE.c **** *  Clear Tx status register of the component.
 381:Generated_Source\PSoC4/SPIM_EE.c **** *
 382:Generated_Source\PSoC4/SPIM_EE.c **** * Reentrant:
 383:Generated_Source\PSoC4/SPIM_EE.c **** *  No.
 384:Generated_Source\PSoC4/SPIM_EE.c **** *
 385:Generated_Source\PSoC4/SPIM_EE.c **** *******************************************************************************/
 386:Generated_Source\PSoC4/SPIM_EE.c **** uint8 SPIM_EE_ReadTxStatus(void) 
 387:Generated_Source\PSoC4/SPIM_EE.c **** {
 263              		.loc 1 387 0
 264              		.cfi_startproc
 265              		@ args = 0, pretend = 0, frame = 0
 266              		@ frame_needed = 0, uses_anonymous_args = 0
 267              		@ link register save eliminated.
 388:Generated_Source\PSoC4/SPIM_EE.c ****     uint8 tmpStatus;
 389:Generated_Source\PSoC4/SPIM_EE.c **** 
 390:Generated_Source\PSoC4/SPIM_EE.c ****     #if(SPIM_EE_TX_SOFTWARE_BUF_ENABLED)
 391:Generated_Source\PSoC4/SPIM_EE.c ****         /* Disable TX interrupt to protect global veriables */
 392:Generated_Source\PSoC4/SPIM_EE.c ****         SPIM_EE_DisableTxInt();
 393:Generated_Source\PSoC4/SPIM_EE.c **** 
 394:Generated_Source\PSoC4/SPIM_EE.c ****         tmpStatus = SPIM_EE_GET_STATUS_TX(SPIM_EE_swStatusTx);
 395:Generated_Source\PSoC4/SPIM_EE.c ****         SPIM_EE_swStatusTx = 0u;
 396:Generated_Source\PSoC4/SPIM_EE.c **** 
 397:Generated_Source\PSoC4/SPIM_EE.c ****         SPIM_EE_EnableTxInt();
 398:Generated_Source\PSoC4/SPIM_EE.c **** 
 399:Generated_Source\PSoC4/SPIM_EE.c ****     #else
 400:Generated_Source\PSoC4/SPIM_EE.c **** 
 401:Generated_Source\PSoC4/SPIM_EE.c ****         tmpStatus = SPIM_EE_TX_STATUS_REG;
 268              		.loc 1 401 0
 269 0000 014B     		ldr	r3, .L18
 270 0002 1878     		ldrb	r0, [r3]
 271 0004 C0B2     		uxtb	r0, r0
 272              	.LVL8:
 402:Generated_Source\PSoC4/SPIM_EE.c **** 
 403:Generated_Source\PSoC4/SPIM_EE.c ****     #endif /* (SPIM_EE_TX_SOFTWARE_BUF_ENABLED) */
 404:Generated_Source\PSoC4/SPIM_EE.c **** 
 405:Generated_Source\PSoC4/SPIM_EE.c ****     return(tmpStatus);
 406:Generated_Source\PSoC4/SPIM_EE.c **** }
 273              		.loc 1 406 0
 274              		@ sp needed
 275 0006 7047     		bx	lr
 276              	.L19:
 277              		.align	2
 278              	.L18:
ARM GAS  C:\Users\rolf\AppData\Local\Temp\ccdQYz7E.s 			page 13


 279 0008 62000F40 		.word	1074724962
 280              		.cfi_endproc
 281              	.LFE11:
 282              		.size	SPIM_EE_ReadTxStatus, .-SPIM_EE_ReadTxStatus
 283              		.section	.text.SPIM_EE_ReadRxStatus,"ax",%progbits
 284              		.align	2
 285              		.global	SPIM_EE_ReadRxStatus
 286              		.code	16
 287              		.thumb_func
 288              		.type	SPIM_EE_ReadRxStatus, %function
 289              	SPIM_EE_ReadRxStatus:
 290              	.LFB12:
 407:Generated_Source\PSoC4/SPIM_EE.c **** 
 408:Generated_Source\PSoC4/SPIM_EE.c **** 
 409:Generated_Source\PSoC4/SPIM_EE.c **** /*******************************************************************************
 410:Generated_Source\PSoC4/SPIM_EE.c **** * Function Name: SPIM_EE_ReadRxStatus
 411:Generated_Source\PSoC4/SPIM_EE.c **** ********************************************************************************
 412:Generated_Source\PSoC4/SPIM_EE.c **** *
 413:Generated_Source\PSoC4/SPIM_EE.c **** * Summary:
 414:Generated_Source\PSoC4/SPIM_EE.c **** *  Read the Rx status register for the component.
 415:Generated_Source\PSoC4/SPIM_EE.c **** *
 416:Generated_Source\PSoC4/SPIM_EE.c **** * Parameters:
 417:Generated_Source\PSoC4/SPIM_EE.c **** *  None.
 418:Generated_Source\PSoC4/SPIM_EE.c **** *
 419:Generated_Source\PSoC4/SPIM_EE.c **** * Return:
 420:Generated_Source\PSoC4/SPIM_EE.c **** *  Contents of the Rx status register.
 421:Generated_Source\PSoC4/SPIM_EE.c **** *
 422:Generated_Source\PSoC4/SPIM_EE.c **** * Global variables:
 423:Generated_Source\PSoC4/SPIM_EE.c **** *  SPIM_EE_swStatusRx - used to store in software Rx status register,
 424:Generated_Source\PSoC4/SPIM_EE.c **** *  modified every function call - resets to zero.
 425:Generated_Source\PSoC4/SPIM_EE.c **** *
 426:Generated_Source\PSoC4/SPIM_EE.c **** * Theory:
 427:Generated_Source\PSoC4/SPIM_EE.c **** *  Allows the user and the API to read the Rx status register for error
 428:Generated_Source\PSoC4/SPIM_EE.c **** *  detection and flow control.
 429:Generated_Source\PSoC4/SPIM_EE.c **** *
 430:Generated_Source\PSoC4/SPIM_EE.c **** * Side Effects:
 431:Generated_Source\PSoC4/SPIM_EE.c **** *  Clear Rx status register of the component.
 432:Generated_Source\PSoC4/SPIM_EE.c **** *
 433:Generated_Source\PSoC4/SPIM_EE.c **** * Reentrant:
 434:Generated_Source\PSoC4/SPIM_EE.c **** *  No.
 435:Generated_Source\PSoC4/SPIM_EE.c **** *
 436:Generated_Source\PSoC4/SPIM_EE.c **** *******************************************************************************/
 437:Generated_Source\PSoC4/SPIM_EE.c **** uint8 SPIM_EE_ReadRxStatus(void) 
 438:Generated_Source\PSoC4/SPIM_EE.c **** {
 291              		.loc 1 438 0
 292              		.cfi_startproc
 293              		@ args = 0, pretend = 0, frame = 0
 294              		@ frame_needed = 0, uses_anonymous_args = 0
 295              		@ link register save eliminated.
 439:Generated_Source\PSoC4/SPIM_EE.c ****     uint8 tmpStatus;
 440:Generated_Source\PSoC4/SPIM_EE.c **** 
 441:Generated_Source\PSoC4/SPIM_EE.c ****     #if(SPIM_EE_RX_SOFTWARE_BUF_ENABLED)
 442:Generated_Source\PSoC4/SPIM_EE.c ****         /* Disable RX interrupt to protect global veriables */
 443:Generated_Source\PSoC4/SPIM_EE.c ****         SPIM_EE_DisableRxInt();
 444:Generated_Source\PSoC4/SPIM_EE.c **** 
 445:Generated_Source\PSoC4/SPIM_EE.c ****         tmpStatus = SPIM_EE_GET_STATUS_RX(SPIM_EE_swStatusRx);
 446:Generated_Source\PSoC4/SPIM_EE.c ****         SPIM_EE_swStatusRx = 0u;
ARM GAS  C:\Users\rolf\AppData\Local\Temp\ccdQYz7E.s 			page 14


 447:Generated_Source\PSoC4/SPIM_EE.c **** 
 448:Generated_Source\PSoC4/SPIM_EE.c ****         SPIM_EE_EnableRxInt();
 449:Generated_Source\PSoC4/SPIM_EE.c **** 
 450:Generated_Source\PSoC4/SPIM_EE.c ****     #else
 451:Generated_Source\PSoC4/SPIM_EE.c **** 
 452:Generated_Source\PSoC4/SPIM_EE.c ****         tmpStatus = SPIM_EE_RX_STATUS_REG;
 296              		.loc 1 452 0
 297 0000 014B     		ldr	r3, .L21
 298 0002 1878     		ldrb	r0, [r3]
 299 0004 C0B2     		uxtb	r0, r0
 300              	.LVL9:
 453:Generated_Source\PSoC4/SPIM_EE.c **** 
 454:Generated_Source\PSoC4/SPIM_EE.c ****     #endif /* (SPIM_EE_RX_SOFTWARE_BUF_ENABLED) */
 455:Generated_Source\PSoC4/SPIM_EE.c **** 
 456:Generated_Source\PSoC4/SPIM_EE.c ****     return(tmpStatus);
 457:Generated_Source\PSoC4/SPIM_EE.c **** }
 301              		.loc 1 457 0
 302              		@ sp needed
 303 0006 7047     		bx	lr
 304              	.L22:
 305              		.align	2
 306              	.L21:
 307 0008 66000F40 		.word	1074724966
 308              		.cfi_endproc
 309              	.LFE12:
 310              		.size	SPIM_EE_ReadRxStatus, .-SPIM_EE_ReadRxStatus
 311              		.section	.text.SPIM_EE_WriteTxData,"ax",%progbits
 312              		.align	2
 313              		.global	SPIM_EE_WriteTxData
 314              		.code	16
 315              		.thumb_func
 316              		.type	SPIM_EE_WriteTxData, %function
 317              	SPIM_EE_WriteTxData:
 318              	.LFB13:
 458:Generated_Source\PSoC4/SPIM_EE.c **** 
 459:Generated_Source\PSoC4/SPIM_EE.c **** 
 460:Generated_Source\PSoC4/SPIM_EE.c **** /*******************************************************************************
 461:Generated_Source\PSoC4/SPIM_EE.c **** * Function Name: SPIM_EE_WriteTxData
 462:Generated_Source\PSoC4/SPIM_EE.c **** ********************************************************************************
 463:Generated_Source\PSoC4/SPIM_EE.c **** *
 464:Generated_Source\PSoC4/SPIM_EE.c **** * Summary:
 465:Generated_Source\PSoC4/SPIM_EE.c **** *  Write a byte of data to be sent across the SPI.
 466:Generated_Source\PSoC4/SPIM_EE.c **** *
 467:Generated_Source\PSoC4/SPIM_EE.c **** * Parameters:
 468:Generated_Source\PSoC4/SPIM_EE.c **** *  txDataByte: The data value to send across the SPI.
 469:Generated_Source\PSoC4/SPIM_EE.c **** *
 470:Generated_Source\PSoC4/SPIM_EE.c **** * Return:
 471:Generated_Source\PSoC4/SPIM_EE.c **** *  None.
 472:Generated_Source\PSoC4/SPIM_EE.c **** *
 473:Generated_Source\PSoC4/SPIM_EE.c **** * Global variables:
 474:Generated_Source\PSoC4/SPIM_EE.c **** *  SPIM_EE_txBufferWrite - used for the account of the bytes which
 475:Generated_Source\PSoC4/SPIM_EE.c **** *  have been written down in the TX software buffer, modified every function
 476:Generated_Source\PSoC4/SPIM_EE.c **** *  call if TX Software Buffer is used.
 477:Generated_Source\PSoC4/SPIM_EE.c **** *  SPIM_EE_txBufferRead - used for the account of the bytes which
 478:Generated_Source\PSoC4/SPIM_EE.c **** *  have been read from the TX software buffer.
 479:Generated_Source\PSoC4/SPIM_EE.c **** *  SPIM_EE_txBuffer[SPIM_EE_TX_BUFFER_SIZE] - used to store
 480:Generated_Source\PSoC4/SPIM_EE.c **** *  data to sending, modified every function call if TX Software Buffer is used.
ARM GAS  C:\Users\rolf\AppData\Local\Temp\ccdQYz7E.s 			page 15


 481:Generated_Source\PSoC4/SPIM_EE.c **** *
 482:Generated_Source\PSoC4/SPIM_EE.c **** * Theory:
 483:Generated_Source\PSoC4/SPIM_EE.c **** *  Allows the user to transmit any byte of data in a single transfer.
 484:Generated_Source\PSoC4/SPIM_EE.c **** *
 485:Generated_Source\PSoC4/SPIM_EE.c **** * Side Effects:
 486:Generated_Source\PSoC4/SPIM_EE.c **** *  If this function is called again before the previous byte is finished then
 487:Generated_Source\PSoC4/SPIM_EE.c **** *  the next byte will be appended to the transfer with no time between
 488:Generated_Source\PSoC4/SPIM_EE.c **** *  the byte transfers. Clear Tx status register of the component.
 489:Generated_Source\PSoC4/SPIM_EE.c **** *
 490:Generated_Source\PSoC4/SPIM_EE.c **** * Reentrant:
 491:Generated_Source\PSoC4/SPIM_EE.c **** *  No.
 492:Generated_Source\PSoC4/SPIM_EE.c **** *
 493:Generated_Source\PSoC4/SPIM_EE.c **** *******************************************************************************/
 494:Generated_Source\PSoC4/SPIM_EE.c **** void SPIM_EE_WriteTxData(uint8 txData) 
 495:Generated_Source\PSoC4/SPIM_EE.c **** {
 319              		.loc 1 495 0
 320              		.cfi_startproc
 321              		@ args = 0, pretend = 0, frame = 0
 322              		@ frame_needed = 0, uses_anonymous_args = 0
 323              		@ link register save eliminated.
 324              	.LVL10:
 325              	.L24:
 496:Generated_Source\PSoC4/SPIM_EE.c ****     #if(SPIM_EE_TX_SOFTWARE_BUF_ENABLED)
 497:Generated_Source\PSoC4/SPIM_EE.c **** 
 498:Generated_Source\PSoC4/SPIM_EE.c ****         uint8 tempStatus;
 499:Generated_Source\PSoC4/SPIM_EE.c ****         uint8 tmpTxBufferRead;
 500:Generated_Source\PSoC4/SPIM_EE.c **** 
 501:Generated_Source\PSoC4/SPIM_EE.c ****         /* Block if TX buffer is FULL: don't overwrite */
 502:Generated_Source\PSoC4/SPIM_EE.c ****         do
 503:Generated_Source\PSoC4/SPIM_EE.c ****         {
 504:Generated_Source\PSoC4/SPIM_EE.c ****             tmpTxBufferRead = SPIM_EE_txBufferRead;
 505:Generated_Source\PSoC4/SPIM_EE.c ****             if(0u == tmpTxBufferRead)
 506:Generated_Source\PSoC4/SPIM_EE.c ****             {
 507:Generated_Source\PSoC4/SPIM_EE.c ****                 tmpTxBufferRead = (SPIM_EE_TX_BUFFER_SIZE - 1u);
 508:Generated_Source\PSoC4/SPIM_EE.c ****             }
 509:Generated_Source\PSoC4/SPIM_EE.c ****             else
 510:Generated_Source\PSoC4/SPIM_EE.c ****             {
 511:Generated_Source\PSoC4/SPIM_EE.c ****                 tmpTxBufferRead--;
 512:Generated_Source\PSoC4/SPIM_EE.c ****             }
 513:Generated_Source\PSoC4/SPIM_EE.c **** 
 514:Generated_Source\PSoC4/SPIM_EE.c ****         }while(tmpTxBufferRead == SPIM_EE_txBufferWrite);
 515:Generated_Source\PSoC4/SPIM_EE.c **** 
 516:Generated_Source\PSoC4/SPIM_EE.c ****         /* Disable TX interrupt to protect global veriables */
 517:Generated_Source\PSoC4/SPIM_EE.c ****         SPIM_EE_DisableTxInt();
 518:Generated_Source\PSoC4/SPIM_EE.c **** 
 519:Generated_Source\PSoC4/SPIM_EE.c ****         tempStatus = SPIM_EE_GET_STATUS_TX(SPIM_EE_swStatusTx);
 520:Generated_Source\PSoC4/SPIM_EE.c ****         SPIM_EE_swStatusTx = tempStatus;
 521:Generated_Source\PSoC4/SPIM_EE.c **** 
 522:Generated_Source\PSoC4/SPIM_EE.c **** 
 523:Generated_Source\PSoC4/SPIM_EE.c ****         if((SPIM_EE_txBufferRead == SPIM_EE_txBufferWrite) &&
 524:Generated_Source\PSoC4/SPIM_EE.c ****            (0u != (SPIM_EE_swStatusTx & SPIM_EE_STS_TX_FIFO_NOT_FULL)))
 525:Generated_Source\PSoC4/SPIM_EE.c ****         {
 526:Generated_Source\PSoC4/SPIM_EE.c ****             /* Put data element into the TX FIFO */
 527:Generated_Source\PSoC4/SPIM_EE.c ****             CY_SET_REG8(SPIM_EE_TXDATA_PTR, txData);
 528:Generated_Source\PSoC4/SPIM_EE.c ****         }
 529:Generated_Source\PSoC4/SPIM_EE.c ****         else
 530:Generated_Source\PSoC4/SPIM_EE.c ****         {
ARM GAS  C:\Users\rolf\AppData\Local\Temp\ccdQYz7E.s 			page 16


 531:Generated_Source\PSoC4/SPIM_EE.c ****             /* Add to the TX software buffer */
 532:Generated_Source\PSoC4/SPIM_EE.c ****             SPIM_EE_txBufferWrite++;
 533:Generated_Source\PSoC4/SPIM_EE.c ****             if(SPIM_EE_txBufferWrite >= SPIM_EE_TX_BUFFER_SIZE)
 534:Generated_Source\PSoC4/SPIM_EE.c ****             {
 535:Generated_Source\PSoC4/SPIM_EE.c ****                 SPIM_EE_txBufferWrite = 0u;
 536:Generated_Source\PSoC4/SPIM_EE.c ****             }
 537:Generated_Source\PSoC4/SPIM_EE.c **** 
 538:Generated_Source\PSoC4/SPIM_EE.c ****             if(SPIM_EE_txBufferWrite == SPIM_EE_txBufferRead)
 539:Generated_Source\PSoC4/SPIM_EE.c ****             {
 540:Generated_Source\PSoC4/SPIM_EE.c ****                 SPIM_EE_txBufferRead++;
 541:Generated_Source\PSoC4/SPIM_EE.c ****                 if(SPIM_EE_txBufferRead >= SPIM_EE_TX_BUFFER_SIZE)
 542:Generated_Source\PSoC4/SPIM_EE.c ****                 {
 543:Generated_Source\PSoC4/SPIM_EE.c ****                     SPIM_EE_txBufferRead = 0u;
 544:Generated_Source\PSoC4/SPIM_EE.c ****                 }
 545:Generated_Source\PSoC4/SPIM_EE.c ****                 SPIM_EE_txBufferFull = 1u;
 546:Generated_Source\PSoC4/SPIM_EE.c ****             }
 547:Generated_Source\PSoC4/SPIM_EE.c **** 
 548:Generated_Source\PSoC4/SPIM_EE.c ****             SPIM_EE_txBuffer[SPIM_EE_txBufferWrite] = txData;
 549:Generated_Source\PSoC4/SPIM_EE.c **** 
 550:Generated_Source\PSoC4/SPIM_EE.c ****             SPIM_EE_TX_STATUS_MASK_REG |= SPIM_EE_STS_TX_FIFO_NOT_FULL;
 551:Generated_Source\PSoC4/SPIM_EE.c ****         }
 552:Generated_Source\PSoC4/SPIM_EE.c **** 
 553:Generated_Source\PSoC4/SPIM_EE.c ****         SPIM_EE_EnableTxInt();
 554:Generated_Source\PSoC4/SPIM_EE.c **** 
 555:Generated_Source\PSoC4/SPIM_EE.c ****     #else
 556:Generated_Source\PSoC4/SPIM_EE.c ****         /* Wait until TX FIFO has a place */
 557:Generated_Source\PSoC4/SPIM_EE.c ****         while(0u == (SPIM_EE_TX_STATUS_REG & SPIM_EE_STS_TX_FIFO_NOT_FULL))
 326              		.loc 1 557 0 discriminator 1
 327 0000 034B     		ldr	r3, .L25
 328 0002 1B78     		ldrb	r3, [r3]
 329 0004 5B07     		lsls	r3, r3, #29
 330 0006 FBD5     		bpl	.L24
 558:Generated_Source\PSoC4/SPIM_EE.c ****         {
 559:Generated_Source\PSoC4/SPIM_EE.c ****         }
 560:Generated_Source\PSoC4/SPIM_EE.c **** 
 561:Generated_Source\PSoC4/SPIM_EE.c ****         /* Put data element into the TX FIFO */
 562:Generated_Source\PSoC4/SPIM_EE.c ****         CY_SET_REG8(SPIM_EE_TXDATA_PTR, txData);
 331              		.loc 1 562 0
 332 0008 024B     		ldr	r3, .L25+4
 333 000a 1870     		strb	r0, [r3]
 563:Generated_Source\PSoC4/SPIM_EE.c **** 
 564:Generated_Source\PSoC4/SPIM_EE.c ****     #endif /* (SPIM_EE_TX_SOFTWARE_BUF_ENABLED) */
 565:Generated_Source\PSoC4/SPIM_EE.c **** }
 334              		.loc 1 565 0
 335              		@ sp needed
 336 000c 7047     		bx	lr
 337              	.L26:
 338 000e C046     		.align	2
 339              	.L25:
 340 0010 62000F40 		.word	1074724962
 341 0014 45000F40 		.word	1074724933
 342              		.cfi_endproc
 343              	.LFE13:
 344              		.size	SPIM_EE_WriteTxData, .-SPIM_EE_WriteTxData
 345              		.section	.text.SPIM_EE_ReadRxData,"ax",%progbits
 346              		.align	2
 347              		.global	SPIM_EE_ReadRxData
ARM GAS  C:\Users\rolf\AppData\Local\Temp\ccdQYz7E.s 			page 17


 348              		.code	16
 349              		.thumb_func
 350              		.type	SPIM_EE_ReadRxData, %function
 351              	SPIM_EE_ReadRxData:
 352              	.LFB14:
 566:Generated_Source\PSoC4/SPIM_EE.c **** 
 567:Generated_Source\PSoC4/SPIM_EE.c **** 
 568:Generated_Source\PSoC4/SPIM_EE.c **** /*******************************************************************************
 569:Generated_Source\PSoC4/SPIM_EE.c **** * Function Name: SPIM_EE_ReadRxData
 570:Generated_Source\PSoC4/SPIM_EE.c **** ********************************************************************************
 571:Generated_Source\PSoC4/SPIM_EE.c **** *
 572:Generated_Source\PSoC4/SPIM_EE.c **** * Summary:
 573:Generated_Source\PSoC4/SPIM_EE.c **** *  Read the next byte of data received across the SPI.
 574:Generated_Source\PSoC4/SPIM_EE.c **** *
 575:Generated_Source\PSoC4/SPIM_EE.c **** * Parameters:
 576:Generated_Source\PSoC4/SPIM_EE.c **** *  None.
 577:Generated_Source\PSoC4/SPIM_EE.c **** *
 578:Generated_Source\PSoC4/SPIM_EE.c **** * Return:
 579:Generated_Source\PSoC4/SPIM_EE.c **** *  The next byte of data read from the FIFO.
 580:Generated_Source\PSoC4/SPIM_EE.c **** *
 581:Generated_Source\PSoC4/SPIM_EE.c **** * Global variables:
 582:Generated_Source\PSoC4/SPIM_EE.c **** *  SPIM_EE_rxBufferWrite - used for the account of the bytes which
 583:Generated_Source\PSoC4/SPIM_EE.c **** *  have been written down in the RX software buffer.
 584:Generated_Source\PSoC4/SPIM_EE.c **** *  SPIM_EE_rxBufferRead - used for the account of the bytes which
 585:Generated_Source\PSoC4/SPIM_EE.c **** *  have been read from the RX software buffer, modified every function
 586:Generated_Source\PSoC4/SPIM_EE.c **** *  call if RX Software Buffer is used.
 587:Generated_Source\PSoC4/SPIM_EE.c **** *  SPIM_EE_rxBuffer[SPIM_EE_RX_BUFFER_SIZE] - used to store
 588:Generated_Source\PSoC4/SPIM_EE.c **** *  received data.
 589:Generated_Source\PSoC4/SPIM_EE.c **** *
 590:Generated_Source\PSoC4/SPIM_EE.c **** * Theory:
 591:Generated_Source\PSoC4/SPIM_EE.c **** *  Allows the user to read a byte of data received.
 592:Generated_Source\PSoC4/SPIM_EE.c **** *
 593:Generated_Source\PSoC4/SPIM_EE.c **** * Side Effects:
 594:Generated_Source\PSoC4/SPIM_EE.c **** *  Will return invalid data if the FIFO is empty. The user should Call
 595:Generated_Source\PSoC4/SPIM_EE.c **** *  GetRxBufferSize() and if it returns a non-zero value then it is safe to call
 596:Generated_Source\PSoC4/SPIM_EE.c **** *  ReadByte() function.
 597:Generated_Source\PSoC4/SPIM_EE.c **** *
 598:Generated_Source\PSoC4/SPIM_EE.c **** * Reentrant:
 599:Generated_Source\PSoC4/SPIM_EE.c **** *  No.
 600:Generated_Source\PSoC4/SPIM_EE.c **** *
 601:Generated_Source\PSoC4/SPIM_EE.c **** *******************************************************************************/
 602:Generated_Source\PSoC4/SPIM_EE.c **** uint8 SPIM_EE_ReadRxData(void) 
 603:Generated_Source\PSoC4/SPIM_EE.c **** {
 353              		.loc 1 603 0
 354              		.cfi_startproc
 355              		@ args = 0, pretend = 0, frame = 0
 356              		@ frame_needed = 0, uses_anonymous_args = 0
 357              		@ link register save eliminated.
 604:Generated_Source\PSoC4/SPIM_EE.c ****     uint8 rxData;
 605:Generated_Source\PSoC4/SPIM_EE.c **** 
 606:Generated_Source\PSoC4/SPIM_EE.c ****     #if(SPIM_EE_RX_SOFTWARE_BUF_ENABLED)
 607:Generated_Source\PSoC4/SPIM_EE.c **** 
 608:Generated_Source\PSoC4/SPIM_EE.c ****         /* Disable RX interrupt to protect global veriables */
 609:Generated_Source\PSoC4/SPIM_EE.c ****         SPIM_EE_DisableRxInt();
 610:Generated_Source\PSoC4/SPIM_EE.c **** 
 611:Generated_Source\PSoC4/SPIM_EE.c ****         if(SPIM_EE_rxBufferRead != SPIM_EE_rxBufferWrite)
 612:Generated_Source\PSoC4/SPIM_EE.c ****         {
ARM GAS  C:\Users\rolf\AppData\Local\Temp\ccdQYz7E.s 			page 18


 613:Generated_Source\PSoC4/SPIM_EE.c ****             if(0u == SPIM_EE_rxBufferFull)
 614:Generated_Source\PSoC4/SPIM_EE.c ****             {
 615:Generated_Source\PSoC4/SPIM_EE.c ****                 SPIM_EE_rxBufferRead++;
 616:Generated_Source\PSoC4/SPIM_EE.c ****                 if(SPIM_EE_rxBufferRead >= SPIM_EE_RX_BUFFER_SIZE)
 617:Generated_Source\PSoC4/SPIM_EE.c ****                 {
 618:Generated_Source\PSoC4/SPIM_EE.c ****                     SPIM_EE_rxBufferRead = 0u;
 619:Generated_Source\PSoC4/SPIM_EE.c ****                 }
 620:Generated_Source\PSoC4/SPIM_EE.c ****             }
 621:Generated_Source\PSoC4/SPIM_EE.c ****             else
 622:Generated_Source\PSoC4/SPIM_EE.c ****             {
 623:Generated_Source\PSoC4/SPIM_EE.c ****                 SPIM_EE_rxBufferFull = 0u;
 624:Generated_Source\PSoC4/SPIM_EE.c ****             }
 625:Generated_Source\PSoC4/SPIM_EE.c ****         }
 626:Generated_Source\PSoC4/SPIM_EE.c **** 
 627:Generated_Source\PSoC4/SPIM_EE.c ****         rxData = SPIM_EE_rxBuffer[SPIM_EE_rxBufferRead];
 628:Generated_Source\PSoC4/SPIM_EE.c **** 
 629:Generated_Source\PSoC4/SPIM_EE.c ****         SPIM_EE_EnableRxInt();
 630:Generated_Source\PSoC4/SPIM_EE.c **** 
 631:Generated_Source\PSoC4/SPIM_EE.c ****     #else
 632:Generated_Source\PSoC4/SPIM_EE.c **** 
 633:Generated_Source\PSoC4/SPIM_EE.c ****         rxData = CY_GET_REG8(SPIM_EE_RXDATA_PTR);
 358              		.loc 1 633 0
 359 0000 014B     		ldr	r3, .L28
 360 0002 1878     		ldrb	r0, [r3]
 361 0004 C0B2     		uxtb	r0, r0
 362              	.LVL11:
 634:Generated_Source\PSoC4/SPIM_EE.c **** 
 635:Generated_Source\PSoC4/SPIM_EE.c ****     #endif /* (SPIM_EE_RX_SOFTWARE_BUF_ENABLED) */
 636:Generated_Source\PSoC4/SPIM_EE.c **** 
 637:Generated_Source\PSoC4/SPIM_EE.c ****     return(rxData);
 638:Generated_Source\PSoC4/SPIM_EE.c **** }
 363              		.loc 1 638 0
 364              		@ sp needed
 365 0006 7047     		bx	lr
 366              	.L29:
 367              		.align	2
 368              	.L28:
 369 0008 55000F40 		.word	1074724949
 370              		.cfi_endproc
 371              	.LFE14:
 372              		.size	SPIM_EE_ReadRxData, .-SPIM_EE_ReadRxData
 373              		.section	.text.SPIM_EE_GetRxBufferSize,"ax",%progbits
 374              		.align	2
 375              		.global	SPIM_EE_GetRxBufferSize
 376              		.code	16
 377              		.thumb_func
 378              		.type	SPIM_EE_GetRxBufferSize, %function
 379              	SPIM_EE_GetRxBufferSize:
 380              	.LFB15:
 639:Generated_Source\PSoC4/SPIM_EE.c **** 
 640:Generated_Source\PSoC4/SPIM_EE.c **** 
 641:Generated_Source\PSoC4/SPIM_EE.c **** /*******************************************************************************
 642:Generated_Source\PSoC4/SPIM_EE.c **** * Function Name: SPIM_EE_GetRxBufferSize
 643:Generated_Source\PSoC4/SPIM_EE.c **** ********************************************************************************
 644:Generated_Source\PSoC4/SPIM_EE.c **** *
 645:Generated_Source\PSoC4/SPIM_EE.c **** * Summary:
 646:Generated_Source\PSoC4/SPIM_EE.c **** *  Returns the number of bytes/words of data currently held in the RX buffer.
ARM GAS  C:\Users\rolf\AppData\Local\Temp\ccdQYz7E.s 			page 19


 647:Generated_Source\PSoC4/SPIM_EE.c **** *  If RX Software Buffer not used then function return 0 if FIFO empty or 1 if
 648:Generated_Source\PSoC4/SPIM_EE.c **** *  FIFO not empty. In another case function return size of RX Software Buffer.
 649:Generated_Source\PSoC4/SPIM_EE.c **** *
 650:Generated_Source\PSoC4/SPIM_EE.c **** * Parameters:
 651:Generated_Source\PSoC4/SPIM_EE.c **** *  None.
 652:Generated_Source\PSoC4/SPIM_EE.c **** *
 653:Generated_Source\PSoC4/SPIM_EE.c **** * Return:
 654:Generated_Source\PSoC4/SPIM_EE.c **** *  Integer count of the number of bytes/words in the RX buffer.
 655:Generated_Source\PSoC4/SPIM_EE.c **** *
 656:Generated_Source\PSoC4/SPIM_EE.c **** * Global variables:
 657:Generated_Source\PSoC4/SPIM_EE.c **** *  SPIM_EE_rxBufferWrite - used for the account of the bytes which
 658:Generated_Source\PSoC4/SPIM_EE.c **** *  have been written down in the RX software buffer.
 659:Generated_Source\PSoC4/SPIM_EE.c **** *  SPIM_EE_rxBufferRead - used for the account of the bytes which
 660:Generated_Source\PSoC4/SPIM_EE.c **** *  have been read from the RX software buffer.
 661:Generated_Source\PSoC4/SPIM_EE.c **** *
 662:Generated_Source\PSoC4/SPIM_EE.c **** * Side Effects:
 663:Generated_Source\PSoC4/SPIM_EE.c **** *  Clear status register of the component.
 664:Generated_Source\PSoC4/SPIM_EE.c **** *
 665:Generated_Source\PSoC4/SPIM_EE.c **** *******************************************************************************/
 666:Generated_Source\PSoC4/SPIM_EE.c **** uint8 SPIM_EE_GetRxBufferSize(void) 
 667:Generated_Source\PSoC4/SPIM_EE.c **** {
 381              		.loc 1 667 0
 382              		.cfi_startproc
 383              		@ args = 0, pretend = 0, frame = 0
 384              		@ frame_needed = 0, uses_anonymous_args = 0
 385              		@ link register save eliminated.
 668:Generated_Source\PSoC4/SPIM_EE.c ****     uint8 size;
 669:Generated_Source\PSoC4/SPIM_EE.c **** 
 670:Generated_Source\PSoC4/SPIM_EE.c ****     #if(SPIM_EE_RX_SOFTWARE_BUF_ENABLED)
 671:Generated_Source\PSoC4/SPIM_EE.c **** 
 672:Generated_Source\PSoC4/SPIM_EE.c ****         /* Disable RX interrupt to protect global veriables */
 673:Generated_Source\PSoC4/SPIM_EE.c ****         SPIM_EE_DisableRxInt();
 674:Generated_Source\PSoC4/SPIM_EE.c **** 
 675:Generated_Source\PSoC4/SPIM_EE.c ****         if(SPIM_EE_rxBufferRead == SPIM_EE_rxBufferWrite)
 676:Generated_Source\PSoC4/SPIM_EE.c ****         {
 677:Generated_Source\PSoC4/SPIM_EE.c ****             size = 0u;
 678:Generated_Source\PSoC4/SPIM_EE.c ****         }
 679:Generated_Source\PSoC4/SPIM_EE.c ****         else if(SPIM_EE_rxBufferRead < SPIM_EE_rxBufferWrite)
 680:Generated_Source\PSoC4/SPIM_EE.c ****         {
 681:Generated_Source\PSoC4/SPIM_EE.c ****             size = (SPIM_EE_rxBufferWrite - SPIM_EE_rxBufferRead);
 682:Generated_Source\PSoC4/SPIM_EE.c ****         }
 683:Generated_Source\PSoC4/SPIM_EE.c ****         else
 684:Generated_Source\PSoC4/SPIM_EE.c ****         {
 685:Generated_Source\PSoC4/SPIM_EE.c ****             size = (SPIM_EE_RX_BUFFER_SIZE - SPIM_EE_rxBufferRead) + SPIM_EE_rxBufferWrite;
 686:Generated_Source\PSoC4/SPIM_EE.c ****         }
 687:Generated_Source\PSoC4/SPIM_EE.c **** 
 688:Generated_Source\PSoC4/SPIM_EE.c ****         SPIM_EE_EnableRxInt();
 689:Generated_Source\PSoC4/SPIM_EE.c **** 
 690:Generated_Source\PSoC4/SPIM_EE.c ****     #else
 691:Generated_Source\PSoC4/SPIM_EE.c **** 
 692:Generated_Source\PSoC4/SPIM_EE.c ****         /* We can only know if there is data in the RX FIFO */
 693:Generated_Source\PSoC4/SPIM_EE.c ****         size = (0u != (SPIM_EE_RX_STATUS_REG & SPIM_EE_STS_RX_FIFO_NOT_EMPTY)) ? 1u : 0u;
 386              		.loc 1 693 0
 387 0000 034B     		ldr	r3, .L33
 388 0002 1B78     		ldrb	r3, [r3]
 389 0004 9B06     		lsls	r3, r3, #26
 390 0006 01D5     		bpl	.L32
ARM GAS  C:\Users\rolf\AppData\Local\Temp\ccdQYz7E.s 			page 20


 391 0008 0120     		movs	r0, #1
 392 000a 00E0     		b	.L31
 393              	.L32:
 394 000c 0020     		movs	r0, #0
 395              	.L31:
 396              	.LVL12:
 694:Generated_Source\PSoC4/SPIM_EE.c **** 
 695:Generated_Source\PSoC4/SPIM_EE.c ****     #endif /* (SPIM_EE_TX_SOFTWARE_BUF_ENABLED) */
 696:Generated_Source\PSoC4/SPIM_EE.c **** 
 697:Generated_Source\PSoC4/SPIM_EE.c ****     return(size);
 698:Generated_Source\PSoC4/SPIM_EE.c **** }
 397              		.loc 1 698 0 discriminator 4
 398              		@ sp needed
 399 000e 7047     		bx	lr
 400              	.L34:
 401              		.align	2
 402              	.L33:
 403 0010 66000F40 		.word	1074724966
 404              		.cfi_endproc
 405              	.LFE15:
 406              		.size	SPIM_EE_GetRxBufferSize, .-SPIM_EE_GetRxBufferSize
 407              		.section	.text.SPIM_EE_GetTxBufferSize,"ax",%progbits
 408              		.align	2
 409              		.global	SPIM_EE_GetTxBufferSize
 410              		.code	16
 411              		.thumb_func
 412              		.type	SPIM_EE_GetTxBufferSize, %function
 413              	SPIM_EE_GetTxBufferSize:
 414              	.LFB16:
 699:Generated_Source\PSoC4/SPIM_EE.c **** 
 700:Generated_Source\PSoC4/SPIM_EE.c **** 
 701:Generated_Source\PSoC4/SPIM_EE.c **** /*******************************************************************************
 702:Generated_Source\PSoC4/SPIM_EE.c **** * Function Name: SPIM_EE_GetTxBufferSize
 703:Generated_Source\PSoC4/SPIM_EE.c **** ********************************************************************************
 704:Generated_Source\PSoC4/SPIM_EE.c **** *
 705:Generated_Source\PSoC4/SPIM_EE.c **** * Summary:
 706:Generated_Source\PSoC4/SPIM_EE.c **** *  Returns the number of bytes/words of data currently held in the TX buffer.
 707:Generated_Source\PSoC4/SPIM_EE.c **** *  If TX Software Buffer not used then function return 0 - if FIFO empty, 1 - if
 708:Generated_Source\PSoC4/SPIM_EE.c **** *  FIFO not full, 4 - if FIFO full. In another case function return size of TX
 709:Generated_Source\PSoC4/SPIM_EE.c **** *  Software Buffer.
 710:Generated_Source\PSoC4/SPIM_EE.c **** *
 711:Generated_Source\PSoC4/SPIM_EE.c **** * Parameters:
 712:Generated_Source\PSoC4/SPIM_EE.c **** *  None.
 713:Generated_Source\PSoC4/SPIM_EE.c **** *
 714:Generated_Source\PSoC4/SPIM_EE.c **** * Return:
 715:Generated_Source\PSoC4/SPIM_EE.c **** *  Integer count of the number of bytes/words in the TX buffer.
 716:Generated_Source\PSoC4/SPIM_EE.c **** *
 717:Generated_Source\PSoC4/SPIM_EE.c **** * Global variables:
 718:Generated_Source\PSoC4/SPIM_EE.c **** *  SPIM_EE_txBufferWrite - used for the account of the bytes which
 719:Generated_Source\PSoC4/SPIM_EE.c **** *  have been written down in the TX software buffer.
 720:Generated_Source\PSoC4/SPIM_EE.c **** *  SPIM_EE_txBufferRead - used for the account of the bytes which
 721:Generated_Source\PSoC4/SPIM_EE.c **** *  have been read from the TX software buffer.
 722:Generated_Source\PSoC4/SPIM_EE.c **** *
 723:Generated_Source\PSoC4/SPIM_EE.c **** * Side Effects:
 724:Generated_Source\PSoC4/SPIM_EE.c **** *  Clear status register of the component.
 725:Generated_Source\PSoC4/SPIM_EE.c **** *
 726:Generated_Source\PSoC4/SPIM_EE.c **** *******************************************************************************/
ARM GAS  C:\Users\rolf\AppData\Local\Temp\ccdQYz7E.s 			page 21


 727:Generated_Source\PSoC4/SPIM_EE.c **** uint8  SPIM_EE_GetTxBufferSize(void) 
 728:Generated_Source\PSoC4/SPIM_EE.c **** {
 415              		.loc 1 728 0
 416              		.cfi_startproc
 417              		@ args = 0, pretend = 0, frame = 0
 418              		@ frame_needed = 0, uses_anonymous_args = 0
 419              		@ link register save eliminated.
 729:Generated_Source\PSoC4/SPIM_EE.c ****     uint8 size;
 730:Generated_Source\PSoC4/SPIM_EE.c **** 
 731:Generated_Source\PSoC4/SPIM_EE.c ****     #if(SPIM_EE_TX_SOFTWARE_BUF_ENABLED)
 732:Generated_Source\PSoC4/SPIM_EE.c ****         /* Disable TX interrupt to protect global veriables */
 733:Generated_Source\PSoC4/SPIM_EE.c ****         SPIM_EE_DisableTxInt();
 734:Generated_Source\PSoC4/SPIM_EE.c **** 
 735:Generated_Source\PSoC4/SPIM_EE.c ****         if(SPIM_EE_txBufferRead == SPIM_EE_txBufferWrite)
 736:Generated_Source\PSoC4/SPIM_EE.c ****         {
 737:Generated_Source\PSoC4/SPIM_EE.c ****             size = 0u;
 738:Generated_Source\PSoC4/SPIM_EE.c ****         }
 739:Generated_Source\PSoC4/SPIM_EE.c ****         else if(SPIM_EE_txBufferRead < SPIM_EE_txBufferWrite)
 740:Generated_Source\PSoC4/SPIM_EE.c ****         {
 741:Generated_Source\PSoC4/SPIM_EE.c ****             size = (SPIM_EE_txBufferWrite - SPIM_EE_txBufferRead);
 742:Generated_Source\PSoC4/SPIM_EE.c ****         }
 743:Generated_Source\PSoC4/SPIM_EE.c ****         else
 744:Generated_Source\PSoC4/SPIM_EE.c ****         {
 745:Generated_Source\PSoC4/SPIM_EE.c ****             size = (SPIM_EE_TX_BUFFER_SIZE - SPIM_EE_txBufferRead) + SPIM_EE_txBufferWrite;
 746:Generated_Source\PSoC4/SPIM_EE.c ****         }
 747:Generated_Source\PSoC4/SPIM_EE.c **** 
 748:Generated_Source\PSoC4/SPIM_EE.c ****         SPIM_EE_EnableTxInt();
 749:Generated_Source\PSoC4/SPIM_EE.c **** 
 750:Generated_Source\PSoC4/SPIM_EE.c ****     #else
 751:Generated_Source\PSoC4/SPIM_EE.c **** 
 752:Generated_Source\PSoC4/SPIM_EE.c ****         size = SPIM_EE_TX_STATUS_REG;
 420              		.loc 1 752 0
 421 0000 064B     		ldr	r3, .L39
 422 0002 1B78     		ldrb	r3, [r3]
 423 0004 DBB2     		uxtb	r3, r3
 424              	.LVL13:
 753:Generated_Source\PSoC4/SPIM_EE.c **** 
 754:Generated_Source\PSoC4/SPIM_EE.c ****         if(0u != (size & SPIM_EE_STS_TX_FIFO_EMPTY))
 425              		.loc 1 754 0
 426 0006 9A07     		lsls	r2, r3, #30
 427 0008 03D4     		bmi	.L37
 755:Generated_Source\PSoC4/SPIM_EE.c ****         {
 756:Generated_Source\PSoC4/SPIM_EE.c ****             size = 0u;
 757:Generated_Source\PSoC4/SPIM_EE.c ****         }
 758:Generated_Source\PSoC4/SPIM_EE.c ****         else if(0u != (size & SPIM_EE_STS_TX_FIFO_NOT_FULL))
 428              		.loc 1 758 0
 429 000a 5B07     		lsls	r3, r3, #29
 430 000c 03D5     		bpl	.L38
 431              	.LVL14:
 759:Generated_Source\PSoC4/SPIM_EE.c ****         {
 760:Generated_Source\PSoC4/SPIM_EE.c ****             size = 1u;
 432              		.loc 1 760 0
 433 000e 0120     		movs	r0, #1
 434 0010 02E0     		b	.L36
 435              	.LVL15:
 436              	.L37:
 756:Generated_Source\PSoC4/SPIM_EE.c ****         }
ARM GAS  C:\Users\rolf\AppData\Local\Temp\ccdQYz7E.s 			page 22


 437              		.loc 1 756 0
 438 0012 0020     		movs	r0, #0
 439 0014 00E0     		b	.L36
 440              	.LVL16:
 441              	.L38:
 761:Generated_Source\PSoC4/SPIM_EE.c ****         }
 762:Generated_Source\PSoC4/SPIM_EE.c ****         else
 763:Generated_Source\PSoC4/SPIM_EE.c ****         {
 764:Generated_Source\PSoC4/SPIM_EE.c ****             size = SPIM_EE_FIFO_SIZE;
 442              		.loc 1 764 0
 443 0016 0420     		movs	r0, #4
 444              	.L36:
 445              	.LVL17:
 765:Generated_Source\PSoC4/SPIM_EE.c ****         }
 766:Generated_Source\PSoC4/SPIM_EE.c **** 
 767:Generated_Source\PSoC4/SPIM_EE.c ****     #endif /* (SPIM_EE_TX_SOFTWARE_BUF_ENABLED) */
 768:Generated_Source\PSoC4/SPIM_EE.c **** 
 769:Generated_Source\PSoC4/SPIM_EE.c ****     return(size);
 770:Generated_Source\PSoC4/SPIM_EE.c **** }
 446              		.loc 1 770 0
 447              		@ sp needed
 448 0018 7047     		bx	lr
 449              	.L40:
 450 001a C046     		.align	2
 451              	.L39:
 452 001c 62000F40 		.word	1074724962
 453              		.cfi_endproc
 454              	.LFE16:
 455              		.size	SPIM_EE_GetTxBufferSize, .-SPIM_EE_GetTxBufferSize
 456              		.section	.text.SPIM_EE_ClearRxBuffer,"ax",%progbits
 457              		.align	2
 458              		.global	SPIM_EE_ClearRxBuffer
 459              		.code	16
 460              		.thumb_func
 461              		.type	SPIM_EE_ClearRxBuffer, %function
 462              	SPIM_EE_ClearRxBuffer:
 463              	.LFB17:
 771:Generated_Source\PSoC4/SPIM_EE.c **** 
 772:Generated_Source\PSoC4/SPIM_EE.c **** 
 773:Generated_Source\PSoC4/SPIM_EE.c **** /*******************************************************************************
 774:Generated_Source\PSoC4/SPIM_EE.c **** * Function Name: SPIM_EE_ClearRxBuffer
 775:Generated_Source\PSoC4/SPIM_EE.c **** ********************************************************************************
 776:Generated_Source\PSoC4/SPIM_EE.c **** *
 777:Generated_Source\PSoC4/SPIM_EE.c **** * Summary:
 778:Generated_Source\PSoC4/SPIM_EE.c **** *  Clear the RX RAM buffer by setting the read and write pointers both to zero.
 779:Generated_Source\PSoC4/SPIM_EE.c **** *
 780:Generated_Source\PSoC4/SPIM_EE.c **** * Parameters:
 781:Generated_Source\PSoC4/SPIM_EE.c **** *  None.
 782:Generated_Source\PSoC4/SPIM_EE.c **** *
 783:Generated_Source\PSoC4/SPIM_EE.c **** * Return:
 784:Generated_Source\PSoC4/SPIM_EE.c **** *  None.
 785:Generated_Source\PSoC4/SPIM_EE.c **** *
 786:Generated_Source\PSoC4/SPIM_EE.c **** * Global variables:
 787:Generated_Source\PSoC4/SPIM_EE.c **** *  SPIM_EE_rxBufferWrite - used for the account of the bytes which
 788:Generated_Source\PSoC4/SPIM_EE.c **** *  have been written down in the RX software buffer, modified every function
 789:Generated_Source\PSoC4/SPIM_EE.c **** *  call - resets to zero.
 790:Generated_Source\PSoC4/SPIM_EE.c **** *  SPIM_EE_rxBufferRead - used for the account of the bytes which
ARM GAS  C:\Users\rolf\AppData\Local\Temp\ccdQYz7E.s 			page 23


 791:Generated_Source\PSoC4/SPIM_EE.c **** *  have been read from the RX software buffer, modified every function call -
 792:Generated_Source\PSoC4/SPIM_EE.c **** *  resets to zero.
 793:Generated_Source\PSoC4/SPIM_EE.c **** *
 794:Generated_Source\PSoC4/SPIM_EE.c **** * Theory:
 795:Generated_Source\PSoC4/SPIM_EE.c **** *  Setting the pointers to zero makes the system believe there is no data to
 796:Generated_Source\PSoC4/SPIM_EE.c **** *  read and writing will resume at address 0 overwriting any data that may have
 797:Generated_Source\PSoC4/SPIM_EE.c **** *  remained in the RAM.
 798:Generated_Source\PSoC4/SPIM_EE.c **** *
 799:Generated_Source\PSoC4/SPIM_EE.c **** * Side Effects:
 800:Generated_Source\PSoC4/SPIM_EE.c **** *  Any received data not read from the RAM buffer will be lost when overwritten.
 801:Generated_Source\PSoC4/SPIM_EE.c **** *
 802:Generated_Source\PSoC4/SPIM_EE.c **** * Reentrant:
 803:Generated_Source\PSoC4/SPIM_EE.c **** *  No.
 804:Generated_Source\PSoC4/SPIM_EE.c **** *
 805:Generated_Source\PSoC4/SPIM_EE.c **** *******************************************************************************/
 806:Generated_Source\PSoC4/SPIM_EE.c **** void SPIM_EE_ClearRxBuffer(void) 
 807:Generated_Source\PSoC4/SPIM_EE.c **** {
 464              		.loc 1 807 0
 465              		.cfi_startproc
 466              		@ args = 0, pretend = 0, frame = 0
 467              		@ frame_needed = 0, uses_anonymous_args = 0
 468              		@ link register save eliminated.
 808:Generated_Source\PSoC4/SPIM_EE.c ****     /* Clear Hardware RX FIFO */
 809:Generated_Source\PSoC4/SPIM_EE.c ****     while(0u !=(SPIM_EE_RX_STATUS_REG & SPIM_EE_STS_RX_FIFO_NOT_EMPTY))
 469              		.loc 1 809 0
 470 0000 01E0     		b	.L42
 471              	.L43:
 810:Generated_Source\PSoC4/SPIM_EE.c ****     {
 811:Generated_Source\PSoC4/SPIM_EE.c ****         (void) CY_GET_REG8(SPIM_EE_RXDATA_PTR);
 472              		.loc 1 811 0
 473 0002 034B     		ldr	r3, .L44
 474 0004 1B78     		ldrb	r3, [r3]
 475              	.L42:
 809:Generated_Source\PSoC4/SPIM_EE.c ****     {
 476              		.loc 1 809 0
 477 0006 034B     		ldr	r3, .L44+4
 478 0008 1B78     		ldrb	r3, [r3]
 479 000a 9B06     		lsls	r3, r3, #26
 480 000c F9D4     		bmi	.L43
 812:Generated_Source\PSoC4/SPIM_EE.c ****     }
 813:Generated_Source\PSoC4/SPIM_EE.c **** 
 814:Generated_Source\PSoC4/SPIM_EE.c ****     #if(SPIM_EE_RX_SOFTWARE_BUF_ENABLED)
 815:Generated_Source\PSoC4/SPIM_EE.c ****         /* Disable RX interrupt to protect global veriables */
 816:Generated_Source\PSoC4/SPIM_EE.c ****         SPIM_EE_DisableRxInt();
 817:Generated_Source\PSoC4/SPIM_EE.c **** 
 818:Generated_Source\PSoC4/SPIM_EE.c ****         SPIM_EE_rxBufferFull  = 0u;
 819:Generated_Source\PSoC4/SPIM_EE.c ****         SPIM_EE_rxBufferRead  = 0u;
 820:Generated_Source\PSoC4/SPIM_EE.c ****         SPIM_EE_rxBufferWrite = 0u;
 821:Generated_Source\PSoC4/SPIM_EE.c **** 
 822:Generated_Source\PSoC4/SPIM_EE.c ****         SPIM_EE_EnableRxInt();
 823:Generated_Source\PSoC4/SPIM_EE.c ****     #endif /* (SPIM_EE_RX_SOFTWARE_BUF_ENABLED) */
 824:Generated_Source\PSoC4/SPIM_EE.c **** }
 481              		.loc 1 824 0
 482              		@ sp needed
 483 000e 7047     		bx	lr
 484              	.L45:
 485              		.align	2
ARM GAS  C:\Users\rolf\AppData\Local\Temp\ccdQYz7E.s 			page 24


 486              	.L44:
 487 0010 55000F40 		.word	1074724949
 488 0014 66000F40 		.word	1074724966
 489              		.cfi_endproc
 490              	.LFE17:
 491              		.size	SPIM_EE_ClearRxBuffer, .-SPIM_EE_ClearRxBuffer
 492              		.section	.text.SPIM_EE_ClearTxBuffer,"ax",%progbits
 493              		.align	2
 494              		.global	SPIM_EE_ClearTxBuffer
 495              		.code	16
 496              		.thumb_func
 497              		.type	SPIM_EE_ClearTxBuffer, %function
 498              	SPIM_EE_ClearTxBuffer:
 499              	.LFB18:
 825:Generated_Source\PSoC4/SPIM_EE.c **** 
 826:Generated_Source\PSoC4/SPIM_EE.c **** 
 827:Generated_Source\PSoC4/SPIM_EE.c **** /*******************************************************************************
 828:Generated_Source\PSoC4/SPIM_EE.c **** * Function Name: SPIM_EE_ClearTxBuffer
 829:Generated_Source\PSoC4/SPIM_EE.c **** ********************************************************************************
 830:Generated_Source\PSoC4/SPIM_EE.c **** *
 831:Generated_Source\PSoC4/SPIM_EE.c **** * Summary:
 832:Generated_Source\PSoC4/SPIM_EE.c **** *  Clear the TX RAM buffer by setting the read and write pointers both to zero.
 833:Generated_Source\PSoC4/SPIM_EE.c **** *
 834:Generated_Source\PSoC4/SPIM_EE.c **** * Parameters:
 835:Generated_Source\PSoC4/SPIM_EE.c **** *  None.
 836:Generated_Source\PSoC4/SPIM_EE.c **** *
 837:Generated_Source\PSoC4/SPIM_EE.c **** * Return:
 838:Generated_Source\PSoC4/SPIM_EE.c **** *  None.
 839:Generated_Source\PSoC4/SPIM_EE.c **** *
 840:Generated_Source\PSoC4/SPIM_EE.c **** * Global variables:
 841:Generated_Source\PSoC4/SPIM_EE.c **** *  SPIM_EE_txBufferWrite - used for the account of the bytes which
 842:Generated_Source\PSoC4/SPIM_EE.c **** *  have been written down in the TX software buffer, modified every function
 843:Generated_Source\PSoC4/SPIM_EE.c **** *  call - resets to zero.
 844:Generated_Source\PSoC4/SPIM_EE.c **** *  SPIM_EE_txBufferRead - used for the account of the bytes which
 845:Generated_Source\PSoC4/SPIM_EE.c **** *  have been read from the TX software buffer, modified every function call -
 846:Generated_Source\PSoC4/SPIM_EE.c **** *  resets to zero.
 847:Generated_Source\PSoC4/SPIM_EE.c **** *
 848:Generated_Source\PSoC4/SPIM_EE.c **** * Theory:
 849:Generated_Source\PSoC4/SPIM_EE.c **** *  Setting the pointers to zero makes the system believe there is no data to
 850:Generated_Source\PSoC4/SPIM_EE.c **** *  read and writing will resume at address 0 overwriting any data that may have
 851:Generated_Source\PSoC4/SPIM_EE.c **** *  remained in the RAM.
 852:Generated_Source\PSoC4/SPIM_EE.c **** *
 853:Generated_Source\PSoC4/SPIM_EE.c **** * Side Effects:
 854:Generated_Source\PSoC4/SPIM_EE.c **** *  Any data not yet transmitted from the RAM buffer will be lost when
 855:Generated_Source\PSoC4/SPIM_EE.c **** *  overwritten.
 856:Generated_Source\PSoC4/SPIM_EE.c **** *
 857:Generated_Source\PSoC4/SPIM_EE.c **** * Reentrant:
 858:Generated_Source\PSoC4/SPIM_EE.c **** *  No.
 859:Generated_Source\PSoC4/SPIM_EE.c **** *
 860:Generated_Source\PSoC4/SPIM_EE.c **** *******************************************************************************/
 861:Generated_Source\PSoC4/SPIM_EE.c **** void SPIM_EE_ClearTxBuffer(void) 
 862:Generated_Source\PSoC4/SPIM_EE.c **** {
 500              		.loc 1 862 0
 501              		.cfi_startproc
 502              		@ args = 0, pretend = 0, frame = 0
 503              		@ frame_needed = 0, uses_anonymous_args = 0
 504 0000 10B5     		push	{r4, lr}
ARM GAS  C:\Users\rolf\AppData\Local\Temp\ccdQYz7E.s 			page 25


 505              		.cfi_def_cfa_offset 8
 506              		.cfi_offset 4, -8
 507              		.cfi_offset 14, -4
 863:Generated_Source\PSoC4/SPIM_EE.c ****     uint8 enableInterrupts;
 864:Generated_Source\PSoC4/SPIM_EE.c **** 
 865:Generated_Source\PSoC4/SPIM_EE.c ****     enableInterrupts = CyEnterCriticalSection();
 508              		.loc 1 865 0
 509 0002 FFF7FEFF 		bl	CyEnterCriticalSection
 510              	.LVL18:
 866:Generated_Source\PSoC4/SPIM_EE.c ****     /* Clear TX FIFO */
 867:Generated_Source\PSoC4/SPIM_EE.c ****     SPIM_EE_AUX_CONTROL_DP0_REG |= ((uint8)  SPIM_EE_TX_FIFO_CLR);
 511              		.loc 1 867 0
 512 0006 064A     		ldr	r2, .L47
 513 0008 1178     		ldrb	r1, [r2]
 514 000a 0123     		movs	r3, #1
 515 000c 0B43     		orrs	r3, r1
 516 000e DBB2     		uxtb	r3, r3
 517 0010 1370     		strb	r3, [r2]
 868:Generated_Source\PSoC4/SPIM_EE.c ****     SPIM_EE_AUX_CONTROL_DP0_REG &= ((uint8) ~SPIM_EE_TX_FIFO_CLR);
 518              		.loc 1 868 0
 519 0012 1378     		ldrb	r3, [r2]
 520 0014 0121     		movs	r1, #1
 521 0016 8B43     		bics	r3, r1
 522 0018 1370     		strb	r3, [r2]
 869:Generated_Source\PSoC4/SPIM_EE.c **** 
 870:Generated_Source\PSoC4/SPIM_EE.c ****     #if(SPIM_EE_USE_SECOND_DATAPATH)
 871:Generated_Source\PSoC4/SPIM_EE.c ****         /* Clear TX FIFO for 2nd Datapath */
 872:Generated_Source\PSoC4/SPIM_EE.c ****         SPIM_EE_AUX_CONTROL_DP1_REG |= ((uint8)  SPIM_EE_TX_FIFO_CLR);
 873:Generated_Source\PSoC4/SPIM_EE.c ****         SPIM_EE_AUX_CONTROL_DP1_REG &= ((uint8) ~SPIM_EE_TX_FIFO_CLR);
 874:Generated_Source\PSoC4/SPIM_EE.c ****     #endif /* (SPIM_EE_USE_SECOND_DATAPATH) */
 875:Generated_Source\PSoC4/SPIM_EE.c ****     CyExitCriticalSection(enableInterrupts);
 523              		.loc 1 875 0
 524 001a FFF7FEFF 		bl	CyExitCriticalSection
 525              	.LVL19:
 876:Generated_Source\PSoC4/SPIM_EE.c **** 
 877:Generated_Source\PSoC4/SPIM_EE.c ****     #if(SPIM_EE_TX_SOFTWARE_BUF_ENABLED)
 878:Generated_Source\PSoC4/SPIM_EE.c ****         /* Disable TX interrupt to protect global veriables */
 879:Generated_Source\PSoC4/SPIM_EE.c ****         SPIM_EE_DisableTxInt();
 880:Generated_Source\PSoC4/SPIM_EE.c **** 
 881:Generated_Source\PSoC4/SPIM_EE.c ****         SPIM_EE_txBufferFull  = 0u;
 882:Generated_Source\PSoC4/SPIM_EE.c ****         SPIM_EE_txBufferRead  = 0u;
 883:Generated_Source\PSoC4/SPIM_EE.c ****         SPIM_EE_txBufferWrite = 0u;
 884:Generated_Source\PSoC4/SPIM_EE.c **** 
 885:Generated_Source\PSoC4/SPIM_EE.c ****         /* Buffer is EMPTY: disable TX FIFO NOT FULL interrupt */
 886:Generated_Source\PSoC4/SPIM_EE.c ****         SPIM_EE_TX_STATUS_MASK_REG &= ((uint8) ~SPIM_EE_STS_TX_FIFO_NOT_FULL);
 887:Generated_Source\PSoC4/SPIM_EE.c **** 
 888:Generated_Source\PSoC4/SPIM_EE.c ****         SPIM_EE_EnableTxInt();
 889:Generated_Source\PSoC4/SPIM_EE.c ****     #endif /* (SPIM_EE_TX_SOFTWARE_BUF_ENABLED) */
 890:Generated_Source\PSoC4/SPIM_EE.c **** }
 526              		.loc 1 890 0
 527              		@ sp needed
 528 001e 10BD     		pop	{r4, pc}
 529              	.L48:
 530              		.align	2
 531              	.L47:
 532 0020 95000F40 		.word	1074725013
 533              		.cfi_endproc
ARM GAS  C:\Users\rolf\AppData\Local\Temp\ccdQYz7E.s 			page 26


 534              	.LFE18:
 535              		.size	SPIM_EE_ClearTxBuffer, .-SPIM_EE_ClearTxBuffer
 536              		.section	.text.SPIM_EE_PutArray,"ax",%progbits
 537              		.align	2
 538              		.global	SPIM_EE_PutArray
 539              		.code	16
 540              		.thumb_func
 541              		.type	SPIM_EE_PutArray, %function
 542              	SPIM_EE_PutArray:
 543              	.LFB19:
 891:Generated_Source\PSoC4/SPIM_EE.c **** 
 892:Generated_Source\PSoC4/SPIM_EE.c **** 
 893:Generated_Source\PSoC4/SPIM_EE.c **** #if(0u != SPIM_EE_BIDIRECTIONAL_MODE)
 894:Generated_Source\PSoC4/SPIM_EE.c ****     /*******************************************************************************
 895:Generated_Source\PSoC4/SPIM_EE.c ****     * Function Name: SPIM_EE_TxEnable
 896:Generated_Source\PSoC4/SPIM_EE.c ****     ********************************************************************************
 897:Generated_Source\PSoC4/SPIM_EE.c ****     *
 898:Generated_Source\PSoC4/SPIM_EE.c ****     * Summary:
 899:Generated_Source\PSoC4/SPIM_EE.c ****     *  If the SPI master is configured to use a single bi-directional pin then this
 900:Generated_Source\PSoC4/SPIM_EE.c ****     *  will set the bi-directional pin to transmit.
 901:Generated_Source\PSoC4/SPIM_EE.c ****     *
 902:Generated_Source\PSoC4/SPIM_EE.c ****     * Parameters:
 903:Generated_Source\PSoC4/SPIM_EE.c ****     *  None.
 904:Generated_Source\PSoC4/SPIM_EE.c ****     *
 905:Generated_Source\PSoC4/SPIM_EE.c ****     * Return:
 906:Generated_Source\PSoC4/SPIM_EE.c ****     *  None.
 907:Generated_Source\PSoC4/SPIM_EE.c ****     *
 908:Generated_Source\PSoC4/SPIM_EE.c ****     *******************************************************************************/
 909:Generated_Source\PSoC4/SPIM_EE.c ****     void SPIM_EE_TxEnable(void) 
 910:Generated_Source\PSoC4/SPIM_EE.c ****     {
 911:Generated_Source\PSoC4/SPIM_EE.c ****         SPIM_EE_CONTROL_REG |= SPIM_EE_CTRL_TX_SIGNAL_EN;
 912:Generated_Source\PSoC4/SPIM_EE.c ****     }
 913:Generated_Source\PSoC4/SPIM_EE.c **** 
 914:Generated_Source\PSoC4/SPIM_EE.c **** 
 915:Generated_Source\PSoC4/SPIM_EE.c ****     /*******************************************************************************
 916:Generated_Source\PSoC4/SPIM_EE.c ****     * Function Name: SPIM_EE_TxDisable
 917:Generated_Source\PSoC4/SPIM_EE.c ****     ********************************************************************************
 918:Generated_Source\PSoC4/SPIM_EE.c ****     *
 919:Generated_Source\PSoC4/SPIM_EE.c ****     * Summary:
 920:Generated_Source\PSoC4/SPIM_EE.c ****     *  If the SPI master is configured to use a single bi-directional pin then this
 921:Generated_Source\PSoC4/SPIM_EE.c ****     *  will set the bi-directional pin to receive.
 922:Generated_Source\PSoC4/SPIM_EE.c ****     *
 923:Generated_Source\PSoC4/SPIM_EE.c ****     * Parameters:
 924:Generated_Source\PSoC4/SPIM_EE.c ****     *  None.
 925:Generated_Source\PSoC4/SPIM_EE.c ****     *
 926:Generated_Source\PSoC4/SPIM_EE.c ****     * Return:
 927:Generated_Source\PSoC4/SPIM_EE.c ****     *  None.
 928:Generated_Source\PSoC4/SPIM_EE.c ****     *
 929:Generated_Source\PSoC4/SPIM_EE.c ****     *******************************************************************************/
 930:Generated_Source\PSoC4/SPIM_EE.c ****     void SPIM_EE_TxDisable(void) 
 931:Generated_Source\PSoC4/SPIM_EE.c ****     {
 932:Generated_Source\PSoC4/SPIM_EE.c ****         SPIM_EE_CONTROL_REG &= ((uint8) ~SPIM_EE_CTRL_TX_SIGNAL_EN);
 933:Generated_Source\PSoC4/SPIM_EE.c ****     }
 934:Generated_Source\PSoC4/SPIM_EE.c **** 
 935:Generated_Source\PSoC4/SPIM_EE.c **** #endif /* (0u != SPIM_EE_BIDIRECTIONAL_MODE) */
 936:Generated_Source\PSoC4/SPIM_EE.c **** 
 937:Generated_Source\PSoC4/SPIM_EE.c **** 
ARM GAS  C:\Users\rolf\AppData\Local\Temp\ccdQYz7E.s 			page 27


 938:Generated_Source\PSoC4/SPIM_EE.c **** /*******************************************************************************
 939:Generated_Source\PSoC4/SPIM_EE.c **** * Function Name: SPIM_EE_PutArray
 940:Generated_Source\PSoC4/SPIM_EE.c **** ********************************************************************************
 941:Generated_Source\PSoC4/SPIM_EE.c **** *
 942:Generated_Source\PSoC4/SPIM_EE.c **** * Summary:
 943:Generated_Source\PSoC4/SPIM_EE.c **** *  Write available data from ROM/RAM to the TX buffer while space is available
 944:Generated_Source\PSoC4/SPIM_EE.c **** *  in the TX buffer. Keep trying until all data is passed to the TX buffer.
 945:Generated_Source\PSoC4/SPIM_EE.c **** *
 946:Generated_Source\PSoC4/SPIM_EE.c **** * Parameters:
 947:Generated_Source\PSoC4/SPIM_EE.c **** *  *buffer: Pointer to the location in RAM containing the data to send
 948:Generated_Source\PSoC4/SPIM_EE.c **** *  byteCount: The number of bytes to move to the transmit buffer.
 949:Generated_Source\PSoC4/SPIM_EE.c **** *
 950:Generated_Source\PSoC4/SPIM_EE.c **** * Return:
 951:Generated_Source\PSoC4/SPIM_EE.c **** *  None.
 952:Generated_Source\PSoC4/SPIM_EE.c **** *
 953:Generated_Source\PSoC4/SPIM_EE.c **** * Side Effects:
 954:Generated_Source\PSoC4/SPIM_EE.c **** *  Will stay in this routine until all data has been sent.  May get locked in
 955:Generated_Source\PSoC4/SPIM_EE.c **** *  this loop if data is not being initiated by the master if there is not
 956:Generated_Source\PSoC4/SPIM_EE.c **** *  enough room in the TX FIFO.
 957:Generated_Source\PSoC4/SPIM_EE.c **** *
 958:Generated_Source\PSoC4/SPIM_EE.c **** * Reentrant:
 959:Generated_Source\PSoC4/SPIM_EE.c **** *  No.
 960:Generated_Source\PSoC4/SPIM_EE.c **** *
 961:Generated_Source\PSoC4/SPIM_EE.c **** *******************************************************************************/
 962:Generated_Source\PSoC4/SPIM_EE.c **** void SPIM_EE_PutArray(const uint8 buffer[], uint8 byteCount)
 963:Generated_Source\PSoC4/SPIM_EE.c ****                                                                           
 964:Generated_Source\PSoC4/SPIM_EE.c **** {
 544              		.loc 1 964 0
 545              		.cfi_startproc
 546              		@ args = 0, pretend = 0, frame = 0
 547              		@ frame_needed = 0, uses_anonymous_args = 0
 548              	.LVL20:
 549 0000 70B5     		push	{r4, r5, r6, lr}
 550              		.cfi_def_cfa_offset 16
 551              		.cfi_offset 4, -16
 552              		.cfi_offset 5, -12
 553              		.cfi_offset 6, -8
 554              		.cfi_offset 14, -4
 555 0002 0600     		movs	r6, r0
 556 0004 0C00     		movs	r4, r1
 557              	.LVL21:
 965:Generated_Source\PSoC4/SPIM_EE.c ****     uint8 bufIndex;
 966:Generated_Source\PSoC4/SPIM_EE.c **** 
 967:Generated_Source\PSoC4/SPIM_EE.c ****     bufIndex = 0u;
 558              		.loc 1 967 0
 559 0006 0025     		movs	r5, #0
 968:Generated_Source\PSoC4/SPIM_EE.c **** 
 969:Generated_Source\PSoC4/SPIM_EE.c ****     while(byteCount > 0u)
 560              		.loc 1 969 0
 561 0008 06E0     		b	.L50
 562              	.LVL22:
 563              	.L51:
 970:Generated_Source\PSoC4/SPIM_EE.c ****     {
 971:Generated_Source\PSoC4/SPIM_EE.c ****         SPIM_EE_WriteTxData(buffer[bufIndex]);
 564              		.loc 1 971 0
 565 000a 705D     		ldrb	r0, [r6, r5]
 566 000c FFF7FEFF 		bl	SPIM_EE_WriteTxData
ARM GAS  C:\Users\rolf\AppData\Local\Temp\ccdQYz7E.s 			page 28


 567              	.LVL23:
 972:Generated_Source\PSoC4/SPIM_EE.c ****         bufIndex++;
 568              		.loc 1 972 0
 569 0010 0135     		adds	r5, r5, #1
 570              	.LVL24:
 571 0012 EDB2     		uxtb	r5, r5
 572              	.LVL25:
 973:Generated_Source\PSoC4/SPIM_EE.c ****         byteCount--;
 573              		.loc 1 973 0
 574 0014 013C     		subs	r4, r4, #1
 575              	.LVL26:
 576 0016 E4B2     		uxtb	r4, r4
 577              	.LVL27:
 578              	.L50:
 969:Generated_Source\PSoC4/SPIM_EE.c ****     {
 579              		.loc 1 969 0
 580 0018 002C     		cmp	r4, #0
 581 001a F6D1     		bne	.L51
 974:Generated_Source\PSoC4/SPIM_EE.c ****     }
 975:Generated_Source\PSoC4/SPIM_EE.c **** }
 582              		.loc 1 975 0
 583              		@ sp needed
 584              	.LVL28:
 585              	.LVL29:
 586              	.LVL30:
 587 001c 70BD     		pop	{r4, r5, r6, pc}
 588              		.cfi_endproc
 589              	.LFE19:
 590              		.size	SPIM_EE_PutArray, .-SPIM_EE_PutArray
 591 001e C046     		.section	.text.SPIM_EE_ClearFIFO,"ax",%progbits
 592              		.align	2
 593              		.global	SPIM_EE_ClearFIFO
 594              		.code	16
 595              		.thumb_func
 596              		.type	SPIM_EE_ClearFIFO, %function
 597              	SPIM_EE_ClearFIFO:
 598              	.LFB20:
 976:Generated_Source\PSoC4/SPIM_EE.c **** 
 977:Generated_Source\PSoC4/SPIM_EE.c **** 
 978:Generated_Source\PSoC4/SPIM_EE.c **** /*******************************************************************************
 979:Generated_Source\PSoC4/SPIM_EE.c **** * Function Name: SPIM_EE_ClearFIFO
 980:Generated_Source\PSoC4/SPIM_EE.c **** ********************************************************************************
 981:Generated_Source\PSoC4/SPIM_EE.c **** *
 982:Generated_Source\PSoC4/SPIM_EE.c **** * Summary:
 983:Generated_Source\PSoC4/SPIM_EE.c **** *  Clear the RX and TX FIFO's of all data for a fresh start.
 984:Generated_Source\PSoC4/SPIM_EE.c **** *
 985:Generated_Source\PSoC4/SPIM_EE.c **** * Parameters:
 986:Generated_Source\PSoC4/SPIM_EE.c **** *  None.
 987:Generated_Source\PSoC4/SPIM_EE.c **** *
 988:Generated_Source\PSoC4/SPIM_EE.c **** * Return:
 989:Generated_Source\PSoC4/SPIM_EE.c **** *  None.
 990:Generated_Source\PSoC4/SPIM_EE.c **** *
 991:Generated_Source\PSoC4/SPIM_EE.c **** * Side Effects:
 992:Generated_Source\PSoC4/SPIM_EE.c **** *  Clear status register of the component.
 993:Generated_Source\PSoC4/SPIM_EE.c **** *
 994:Generated_Source\PSoC4/SPIM_EE.c **** *******************************************************************************/
 995:Generated_Source\PSoC4/SPIM_EE.c **** void SPIM_EE_ClearFIFO(void) 
ARM GAS  C:\Users\rolf\AppData\Local\Temp\ccdQYz7E.s 			page 29


 996:Generated_Source\PSoC4/SPIM_EE.c **** {
 599              		.loc 1 996 0
 600              		.cfi_startproc
 601              		@ args = 0, pretend = 0, frame = 0
 602              		@ frame_needed = 0, uses_anonymous_args = 0
 603 0000 10B5     		push	{r4, lr}
 604              		.cfi_def_cfa_offset 8
 605              		.cfi_offset 4, -8
 606              		.cfi_offset 14, -4
 997:Generated_Source\PSoC4/SPIM_EE.c ****     uint8 enableInterrupts;
 998:Generated_Source\PSoC4/SPIM_EE.c **** 
 999:Generated_Source\PSoC4/SPIM_EE.c ****     /* Clear Hardware RX FIFO */
1000:Generated_Source\PSoC4/SPIM_EE.c ****     while(0u !=(SPIM_EE_RX_STATUS_REG & SPIM_EE_STS_RX_FIFO_NOT_EMPTY))
 607              		.loc 1 1000 0
 608 0002 01E0     		b	.L53
 609              	.L54:
1001:Generated_Source\PSoC4/SPIM_EE.c ****     {
1002:Generated_Source\PSoC4/SPIM_EE.c ****         (void) CY_GET_REG8(SPIM_EE_RXDATA_PTR);
 610              		.loc 1 1002 0
 611 0004 0A4B     		ldr	r3, .L55
 612 0006 1B78     		ldrb	r3, [r3]
 613              	.L53:
1000:Generated_Source\PSoC4/SPIM_EE.c ****     {
 614              		.loc 1 1000 0
 615 0008 0A4B     		ldr	r3, .L55+4
 616 000a 1B78     		ldrb	r3, [r3]
 617 000c 9B06     		lsls	r3, r3, #26
 618 000e F9D4     		bmi	.L54
1003:Generated_Source\PSoC4/SPIM_EE.c ****     }
1004:Generated_Source\PSoC4/SPIM_EE.c **** 
1005:Generated_Source\PSoC4/SPIM_EE.c ****     enableInterrupts = CyEnterCriticalSection();
 619              		.loc 1 1005 0
 620 0010 FFF7FEFF 		bl	CyEnterCriticalSection
 621              	.LVL31:
1006:Generated_Source\PSoC4/SPIM_EE.c ****     /* Clear TX FIFO */
1007:Generated_Source\PSoC4/SPIM_EE.c ****     SPIM_EE_AUX_CONTROL_DP0_REG |= ((uint8)  SPIM_EE_TX_FIFO_CLR);
 622              		.loc 1 1007 0
 623 0014 084A     		ldr	r2, .L55+8
 624 0016 1178     		ldrb	r1, [r2]
 625 0018 0123     		movs	r3, #1
 626 001a 0B43     		orrs	r3, r1
 627 001c DBB2     		uxtb	r3, r3
 628 001e 1370     		strb	r3, [r2]
1008:Generated_Source\PSoC4/SPIM_EE.c ****     SPIM_EE_AUX_CONTROL_DP0_REG &= ((uint8) ~SPIM_EE_TX_FIFO_CLR);
 629              		.loc 1 1008 0
 630 0020 1378     		ldrb	r3, [r2]
 631 0022 0121     		movs	r1, #1
 632 0024 8B43     		bics	r3, r1
 633 0026 1370     		strb	r3, [r2]
1009:Generated_Source\PSoC4/SPIM_EE.c **** 
1010:Generated_Source\PSoC4/SPIM_EE.c ****     #if(SPIM_EE_USE_SECOND_DATAPATH)
1011:Generated_Source\PSoC4/SPIM_EE.c ****         /* Clear TX FIFO for 2nd Datapath */
1012:Generated_Source\PSoC4/SPIM_EE.c ****         SPIM_EE_AUX_CONTROL_DP1_REG |= ((uint8)  SPIM_EE_TX_FIFO_CLR);
1013:Generated_Source\PSoC4/SPIM_EE.c ****         SPIM_EE_AUX_CONTROL_DP1_REG &= ((uint8) ~SPIM_EE_TX_FIFO_CLR);
1014:Generated_Source\PSoC4/SPIM_EE.c ****     #endif /* (SPIM_EE_USE_SECOND_DATAPATH) */
1015:Generated_Source\PSoC4/SPIM_EE.c ****     CyExitCriticalSection(enableInterrupts);
 634              		.loc 1 1015 0
ARM GAS  C:\Users\rolf\AppData\Local\Temp\ccdQYz7E.s 			page 30


 635 0028 FFF7FEFF 		bl	CyExitCriticalSection
 636              	.LVL32:
1016:Generated_Source\PSoC4/SPIM_EE.c **** }
 637              		.loc 1 1016 0
 638              		@ sp needed
 639 002c 10BD     		pop	{r4, pc}
 640              	.L56:
 641 002e C046     		.align	2
 642              	.L55:
 643 0030 55000F40 		.word	1074724949
 644 0034 66000F40 		.word	1074724966
 645 0038 95000F40 		.word	1074725013
 646              		.cfi_endproc
 647              	.LFE20:
 648              		.size	SPIM_EE_ClearFIFO, .-SPIM_EE_ClearFIFO
 649              		.section	.text.SPIM_EE_Init,"ax",%progbits
 650              		.align	2
 651              		.global	SPIM_EE_Init
 652              		.code	16
 653              		.thumb_func
 654              		.type	SPIM_EE_Init, %function
 655              	SPIM_EE_Init:
 656              	.LFB1:
  64:Generated_Source\PSoC4/SPIM_EE.c ****     /* Initialize the Bit counter */
 657              		.loc 1 64 0
 658              		.cfi_startproc
 659              		@ args = 0, pretend = 0, frame = 0
 660              		@ frame_needed = 0, uses_anonymous_args = 0
 661 0000 10B5     		push	{r4, lr}
 662              		.cfi_def_cfa_offset 8
 663              		.cfi_offset 4, -8
 664              		.cfi_offset 14, -4
  66:Generated_Source\PSoC4/SPIM_EE.c **** 
 665              		.loc 1 66 0
 666 0002 0F22     		movs	r2, #15
 667 0004 064B     		ldr	r3, .L58
 668 0006 1A70     		strb	r2, [r3]
  83:Generated_Source\PSoC4/SPIM_EE.c **** 
 669              		.loc 1 83 0
 670 0008 FFF7FEFF 		bl	SPIM_EE_ClearFIFO
 671              	.LVL33:
  97:Generated_Source\PSoC4/SPIM_EE.c ****     (void) SPIM_EE_ReadRxStatus(); /* Clear Rx status and swStatusRx */
 672              		.loc 1 97 0
 673 000c FFF7FEFF 		bl	SPIM_EE_ReadTxStatus
 674              	.LVL34:
  98:Generated_Source\PSoC4/SPIM_EE.c **** 
 675              		.loc 1 98 0
 676 0010 FFF7FEFF 		bl	SPIM_EE_ReadRxStatus
 677              	.LVL35:
 101:Generated_Source\PSoC4/SPIM_EE.c ****     SPIM_EE_RX_STATUS_MASK_REG = SPIM_EE_RX_INIT_INTERRUPTS_MASK;
 678              		.loc 1 101 0
 679 0014 0023     		movs	r3, #0
 680 0016 034A     		ldr	r2, .L58+4
 681 0018 1370     		strb	r3, [r2]
 102:Generated_Source\PSoC4/SPIM_EE.c **** }
 682              		.loc 1 102 0
 683 001a 034A     		ldr	r2, .L58+8
ARM GAS  C:\Users\rolf\AppData\Local\Temp\ccdQYz7E.s 			page 31


 684 001c 1370     		strb	r3, [r2]
 103:Generated_Source\PSoC4/SPIM_EE.c **** 
 685              		.loc 1 103 0
 686              		@ sp needed
 687 001e 10BD     		pop	{r4, pc}
 688              	.L59:
 689              		.align	2
 690              	.L58:
 691 0020 83000F40 		.word	1074724995
 692 0024 82000F40 		.word	1074724994
 693 0028 86000F40 		.word	1074724998
 694              		.cfi_endproc
 695              	.LFE1:
 696              		.size	SPIM_EE_Init, .-SPIM_EE_Init
 697              		.section	.text.SPIM_EE_Start,"ax",%progbits
 698              		.align	2
 699              		.global	SPIM_EE_Start
 700              		.code	16
 701              		.thumb_func
 702              		.type	SPIM_EE_Start, %function
 703              	SPIM_EE_Start:
 704              	.LFB3:
 164:Generated_Source\PSoC4/SPIM_EE.c ****     if(0u == SPIM_EE_initVar)
 705              		.loc 1 164 0
 706              		.cfi_startproc
 707              		@ args = 0, pretend = 0, frame = 0
 708              		@ frame_needed = 0, uses_anonymous_args = 0
 709 0000 10B5     		push	{r4, lr}
 710              		.cfi_def_cfa_offset 8
 711              		.cfi_offset 4, -8
 712              		.cfi_offset 14, -4
 165:Generated_Source\PSoC4/SPIM_EE.c ****     {
 713              		.loc 1 165 0
 714 0002 064B     		ldr	r3, .L62
 715 0004 1B78     		ldrb	r3, [r3]
 716 0006 002B     		cmp	r3, #0
 717 0008 04D1     		bne	.L61
 167:Generated_Source\PSoC4/SPIM_EE.c ****         SPIM_EE_initVar = 1u;
 718              		.loc 1 167 0
 719 000a FFF7FEFF 		bl	SPIM_EE_Init
 720              	.LVL36:
 168:Generated_Source\PSoC4/SPIM_EE.c ****     }
 721              		.loc 1 168 0
 722 000e 0122     		movs	r2, #1
 723 0010 024B     		ldr	r3, .L62
 724 0012 1A70     		strb	r2, [r3]
 725              	.L61:
 171:Generated_Source\PSoC4/SPIM_EE.c **** }
 726              		.loc 1 171 0
 727 0014 FFF7FEFF 		bl	SPIM_EE_Enable
 728              	.LVL37:
 172:Generated_Source\PSoC4/SPIM_EE.c **** 
 729              		.loc 1 172 0
 730              		@ sp needed
 731 0018 10BD     		pop	{r4, pc}
 732              	.L63:
 733 001a C046     		.align	2
ARM GAS  C:\Users\rolf\AppData\Local\Temp\ccdQYz7E.s 			page 32


 734              	.L62:
 735 001c 00000000 		.word	.LANCHOR0
 736              		.cfi_endproc
 737              	.LFE3:
 738              		.size	SPIM_EE_Start, .-SPIM_EE_Start
 739              		.section	.text.SPIM_EE_EnableInt,"ax",%progbits
 740              		.align	2
 741              		.global	SPIM_EE_EnableInt
 742              		.code	16
 743              		.thumb_func
 744              		.type	SPIM_EE_EnableInt, %function
 745              	SPIM_EE_EnableInt:
 746              	.LFB21:
1017:Generated_Source\PSoC4/SPIM_EE.c **** 
1018:Generated_Source\PSoC4/SPIM_EE.c **** 
1019:Generated_Source\PSoC4/SPIM_EE.c **** /* Following functions are for version Compatibility, they are obsolete.
1020:Generated_Source\PSoC4/SPIM_EE.c **** *  Please do not use it in new projects.
1021:Generated_Source\PSoC4/SPIM_EE.c **** */
1022:Generated_Source\PSoC4/SPIM_EE.c **** 
1023:Generated_Source\PSoC4/SPIM_EE.c **** 
1024:Generated_Source\PSoC4/SPIM_EE.c **** /*******************************************************************************
1025:Generated_Source\PSoC4/SPIM_EE.c **** * Function Name: SPIM_EE_EnableInt
1026:Generated_Source\PSoC4/SPIM_EE.c **** ********************************************************************************
1027:Generated_Source\PSoC4/SPIM_EE.c **** *
1028:Generated_Source\PSoC4/SPIM_EE.c **** * Summary:
1029:Generated_Source\PSoC4/SPIM_EE.c **** *  Enable internal interrupt generation.
1030:Generated_Source\PSoC4/SPIM_EE.c **** *
1031:Generated_Source\PSoC4/SPIM_EE.c **** * Parameters:
1032:Generated_Source\PSoC4/SPIM_EE.c **** *  None.
1033:Generated_Source\PSoC4/SPIM_EE.c **** *
1034:Generated_Source\PSoC4/SPIM_EE.c **** * Return:
1035:Generated_Source\PSoC4/SPIM_EE.c **** *  None.
1036:Generated_Source\PSoC4/SPIM_EE.c **** *
1037:Generated_Source\PSoC4/SPIM_EE.c **** * Theory:
1038:Generated_Source\PSoC4/SPIM_EE.c **** *  Enable the internal interrupt output -or- the interrupt component itself.
1039:Generated_Source\PSoC4/SPIM_EE.c **** *
1040:Generated_Source\PSoC4/SPIM_EE.c **** *******************************************************************************/
1041:Generated_Source\PSoC4/SPIM_EE.c **** void SPIM_EE_EnableInt(void) 
1042:Generated_Source\PSoC4/SPIM_EE.c **** {
 747              		.loc 1 1042 0
 748              		.cfi_startproc
 749              		@ args = 0, pretend = 0, frame = 0
 750              		@ frame_needed = 0, uses_anonymous_args = 0
 751              		@ link register save eliminated.
1043:Generated_Source\PSoC4/SPIM_EE.c ****     SPIM_EE_EnableRxInt();
1044:Generated_Source\PSoC4/SPIM_EE.c ****     SPIM_EE_EnableTxInt();
1045:Generated_Source\PSoC4/SPIM_EE.c **** }
 752              		.loc 1 1045 0
 753              		@ sp needed
 754 0000 7047     		bx	lr
 755              		.cfi_endproc
 756              	.LFE21:
 757              		.size	SPIM_EE_EnableInt, .-SPIM_EE_EnableInt
 758 0002 C046     		.section	.text.SPIM_EE_DisableInt,"ax",%progbits
 759              		.align	2
 760              		.global	SPIM_EE_DisableInt
 761              		.code	16
ARM GAS  C:\Users\rolf\AppData\Local\Temp\ccdQYz7E.s 			page 33


 762              		.thumb_func
 763              		.type	SPIM_EE_DisableInt, %function
 764              	SPIM_EE_DisableInt:
 765              	.LFB22:
1046:Generated_Source\PSoC4/SPIM_EE.c **** 
1047:Generated_Source\PSoC4/SPIM_EE.c **** 
1048:Generated_Source\PSoC4/SPIM_EE.c **** /*******************************************************************************
1049:Generated_Source\PSoC4/SPIM_EE.c **** * Function Name: SPIM_EE_DisableInt
1050:Generated_Source\PSoC4/SPIM_EE.c **** ********************************************************************************
1051:Generated_Source\PSoC4/SPIM_EE.c **** *
1052:Generated_Source\PSoC4/SPIM_EE.c **** * Summary:
1053:Generated_Source\PSoC4/SPIM_EE.c **** *  Disable internal interrupt generation.
1054:Generated_Source\PSoC4/SPIM_EE.c **** *
1055:Generated_Source\PSoC4/SPIM_EE.c **** * Parameters:
1056:Generated_Source\PSoC4/SPIM_EE.c **** *  None.
1057:Generated_Source\PSoC4/SPIM_EE.c **** *
1058:Generated_Source\PSoC4/SPIM_EE.c **** * Return:
1059:Generated_Source\PSoC4/SPIM_EE.c **** *  None.
1060:Generated_Source\PSoC4/SPIM_EE.c **** *
1061:Generated_Source\PSoC4/SPIM_EE.c **** * Theory:
1062:Generated_Source\PSoC4/SPIM_EE.c **** *  Disable the internal interrupt output -or- the interrupt component itself.
1063:Generated_Source\PSoC4/SPIM_EE.c **** *
1064:Generated_Source\PSoC4/SPIM_EE.c **** *******************************************************************************/
1065:Generated_Source\PSoC4/SPIM_EE.c **** void SPIM_EE_DisableInt(void) 
1066:Generated_Source\PSoC4/SPIM_EE.c **** {
 766              		.loc 1 1066 0
 767              		.cfi_startproc
 768              		@ args = 0, pretend = 0, frame = 0
 769              		@ frame_needed = 0, uses_anonymous_args = 0
 770              		@ link register save eliminated.
1067:Generated_Source\PSoC4/SPIM_EE.c ****     SPIM_EE_DisableTxInt();
1068:Generated_Source\PSoC4/SPIM_EE.c ****     SPIM_EE_DisableRxInt();
1069:Generated_Source\PSoC4/SPIM_EE.c **** }
 771              		.loc 1 1069 0
 772              		@ sp needed
 773 0000 7047     		bx	lr
 774              		.cfi_endproc
 775              	.LFE22:
 776              		.size	SPIM_EE_DisableInt, .-SPIM_EE_DisableInt
 777 0002 C046     		.section	.text.SPIM_EE_SetInterruptMode,"ax",%progbits
 778              		.align	2
 779              		.global	SPIM_EE_SetInterruptMode
 780              		.code	16
 781              		.thumb_func
 782              		.type	SPIM_EE_SetInterruptMode, %function
 783              	SPIM_EE_SetInterruptMode:
 784              	.LFB23:
1070:Generated_Source\PSoC4/SPIM_EE.c **** 
1071:Generated_Source\PSoC4/SPIM_EE.c **** 
1072:Generated_Source\PSoC4/SPIM_EE.c **** /*******************************************************************************
1073:Generated_Source\PSoC4/SPIM_EE.c **** * Function Name: SPIM_EE_SetInterruptMode
1074:Generated_Source\PSoC4/SPIM_EE.c **** ********************************************************************************
1075:Generated_Source\PSoC4/SPIM_EE.c **** *
1076:Generated_Source\PSoC4/SPIM_EE.c **** * Summary:
1077:Generated_Source\PSoC4/SPIM_EE.c **** *  Configure which status bits trigger an interrupt event.
1078:Generated_Source\PSoC4/SPIM_EE.c **** *
1079:Generated_Source\PSoC4/SPIM_EE.c **** * Parameters:
ARM GAS  C:\Users\rolf\AppData\Local\Temp\ccdQYz7E.s 			page 34


1080:Generated_Source\PSoC4/SPIM_EE.c **** *  intSrc: An or'd combination of the desired status bit masks (defined in the
1081:Generated_Source\PSoC4/SPIM_EE.c **** *  header file).
1082:Generated_Source\PSoC4/SPIM_EE.c **** *
1083:Generated_Source\PSoC4/SPIM_EE.c **** * Return:
1084:Generated_Source\PSoC4/SPIM_EE.c **** *  None.
1085:Generated_Source\PSoC4/SPIM_EE.c **** *
1086:Generated_Source\PSoC4/SPIM_EE.c **** * Theory:
1087:Generated_Source\PSoC4/SPIM_EE.c **** *  Enables the output of specific status bits to the interrupt controller.
1088:Generated_Source\PSoC4/SPIM_EE.c **** *
1089:Generated_Source\PSoC4/SPIM_EE.c **** *******************************************************************************/
1090:Generated_Source\PSoC4/SPIM_EE.c **** void SPIM_EE_SetInterruptMode(uint8 intSrc) 
1091:Generated_Source\PSoC4/SPIM_EE.c **** {
 785              		.loc 1 1091 0
 786              		.cfi_startproc
 787              		@ args = 0, pretend = 0, frame = 0
 788              		@ frame_needed = 0, uses_anonymous_args = 0
 789              		@ link register save eliminated.
 790              	.LVL38:
1092:Generated_Source\PSoC4/SPIM_EE.c ****     SPIM_EE_TX_STATUS_MASK_REG  = (intSrc & ((uint8) ~SPIM_EE_STS_SPI_IDLE));
 791              		.loc 1 1092 0
 792 0000 1023     		movs	r3, #16
 793 0002 0200     		movs	r2, r0
 794 0004 9A43     		bics	r2, r3
 795 0006 024B     		ldr	r3, .L67
 796 0008 1A70     		strb	r2, [r3]
1093:Generated_Source\PSoC4/SPIM_EE.c ****     SPIM_EE_RX_STATUS_MASK_REG  =  intSrc;
 797              		.loc 1 1093 0
 798 000a 024B     		ldr	r3, .L67+4
 799 000c 1870     		strb	r0, [r3]
1094:Generated_Source\PSoC4/SPIM_EE.c **** }
 800              		.loc 1 1094 0
 801              		@ sp needed
 802 000e 7047     		bx	lr
 803              	.L68:
 804              		.align	2
 805              	.L67:
 806 0010 82000F40 		.word	1074724994
 807 0014 86000F40 		.word	1074724998
 808              		.cfi_endproc
 809              	.LFE23:
 810              		.size	SPIM_EE_SetInterruptMode, .-SPIM_EE_SetInterruptMode
 811              		.section	.text.SPIM_EE_ReadStatus,"ax",%progbits
 812              		.align	2
 813              		.global	SPIM_EE_ReadStatus
 814              		.code	16
 815              		.thumb_func
 816              		.type	SPIM_EE_ReadStatus, %function
 817              	SPIM_EE_ReadStatus:
 818              	.LFB24:
1095:Generated_Source\PSoC4/SPIM_EE.c **** 
1096:Generated_Source\PSoC4/SPIM_EE.c **** 
1097:Generated_Source\PSoC4/SPIM_EE.c **** /*******************************************************************************
1098:Generated_Source\PSoC4/SPIM_EE.c **** * Function Name: SPIM_EE_ReadStatus
1099:Generated_Source\PSoC4/SPIM_EE.c **** ********************************************************************************
1100:Generated_Source\PSoC4/SPIM_EE.c **** *
1101:Generated_Source\PSoC4/SPIM_EE.c **** * Summary:
1102:Generated_Source\PSoC4/SPIM_EE.c **** *  Read the status register for the component.
ARM GAS  C:\Users\rolf\AppData\Local\Temp\ccdQYz7E.s 			page 35


1103:Generated_Source\PSoC4/SPIM_EE.c **** *
1104:Generated_Source\PSoC4/SPIM_EE.c **** * Parameters:
1105:Generated_Source\PSoC4/SPIM_EE.c **** *  None.
1106:Generated_Source\PSoC4/SPIM_EE.c **** *
1107:Generated_Source\PSoC4/SPIM_EE.c **** * Return:
1108:Generated_Source\PSoC4/SPIM_EE.c **** *  Contents of the status register.
1109:Generated_Source\PSoC4/SPIM_EE.c **** *
1110:Generated_Source\PSoC4/SPIM_EE.c **** * Global variables:
1111:Generated_Source\PSoC4/SPIM_EE.c **** *  SPIM_EE_swStatus - used to store in software status register,
1112:Generated_Source\PSoC4/SPIM_EE.c **** *  modified every function call - resets to zero.
1113:Generated_Source\PSoC4/SPIM_EE.c **** *
1114:Generated_Source\PSoC4/SPIM_EE.c **** * Theory:
1115:Generated_Source\PSoC4/SPIM_EE.c **** *  Allows the user and the API to read the status register for error detection
1116:Generated_Source\PSoC4/SPIM_EE.c **** *  and flow control.
1117:Generated_Source\PSoC4/SPIM_EE.c **** *
1118:Generated_Source\PSoC4/SPIM_EE.c **** * Side Effects:
1119:Generated_Source\PSoC4/SPIM_EE.c **** *  Clear status register of the component.
1120:Generated_Source\PSoC4/SPIM_EE.c **** *
1121:Generated_Source\PSoC4/SPIM_EE.c **** * Reentrant:
1122:Generated_Source\PSoC4/SPIM_EE.c **** *  No.
1123:Generated_Source\PSoC4/SPIM_EE.c **** *
1124:Generated_Source\PSoC4/SPIM_EE.c **** *******************************************************************************/
1125:Generated_Source\PSoC4/SPIM_EE.c **** uint8 SPIM_EE_ReadStatus(void) 
1126:Generated_Source\PSoC4/SPIM_EE.c **** {
 819              		.loc 1 1126 0
 820              		.cfi_startproc
 821              		@ args = 0, pretend = 0, frame = 0
 822              		@ frame_needed = 0, uses_anonymous_args = 0
 823              		@ link register save eliminated.
1127:Generated_Source\PSoC4/SPIM_EE.c ****     uint8 tmpStatus;
1128:Generated_Source\PSoC4/SPIM_EE.c **** 
1129:Generated_Source\PSoC4/SPIM_EE.c ****     #if(SPIM_EE_TX_SOFTWARE_BUF_ENABLED || SPIM_EE_RX_SOFTWARE_BUF_ENABLED)
1130:Generated_Source\PSoC4/SPIM_EE.c **** 
1131:Generated_Source\PSoC4/SPIM_EE.c ****         SPIM_EE_DisableInt();
1132:Generated_Source\PSoC4/SPIM_EE.c **** 
1133:Generated_Source\PSoC4/SPIM_EE.c ****         tmpStatus  = SPIM_EE_GET_STATUS_RX(SPIM_EE_swStatusRx);
1134:Generated_Source\PSoC4/SPIM_EE.c ****         tmpStatus |= SPIM_EE_GET_STATUS_TX(SPIM_EE_swStatusTx);
1135:Generated_Source\PSoC4/SPIM_EE.c ****         tmpStatus &= ((uint8) ~SPIM_EE_STS_SPI_IDLE);
1136:Generated_Source\PSoC4/SPIM_EE.c **** 
1137:Generated_Source\PSoC4/SPIM_EE.c ****         SPIM_EE_swStatusTx = 0u;
1138:Generated_Source\PSoC4/SPIM_EE.c ****         SPIM_EE_swStatusRx = 0u;
1139:Generated_Source\PSoC4/SPIM_EE.c **** 
1140:Generated_Source\PSoC4/SPIM_EE.c ****         SPIM_EE_EnableInt();
1141:Generated_Source\PSoC4/SPIM_EE.c **** 
1142:Generated_Source\PSoC4/SPIM_EE.c ****     #else
1143:Generated_Source\PSoC4/SPIM_EE.c **** 
1144:Generated_Source\PSoC4/SPIM_EE.c ****         tmpStatus  = SPIM_EE_RX_STATUS_REG;
 824              		.loc 1 1144 0
 825 0000 034B     		ldr	r3, .L70
 826 0002 1B78     		ldrb	r3, [r3]
 827              	.LVL39:
1145:Generated_Source\PSoC4/SPIM_EE.c ****         tmpStatus |= SPIM_EE_TX_STATUS_REG;
 828              		.loc 1 1145 0
 829 0004 034A     		ldr	r2, .L70+4
 830 0006 1078     		ldrb	r0, [r2]
 831 0008 1843     		orrs	r0, r3
 832              	.LVL40:
ARM GAS  C:\Users\rolf\AppData\Local\Temp\ccdQYz7E.s 			page 36


1146:Generated_Source\PSoC4/SPIM_EE.c ****         tmpStatus &= ((uint8) ~SPIM_EE_STS_SPI_IDLE);
 833              		.loc 1 1146 0
 834 000a 1023     		movs	r3, #16
 835 000c 9843     		bics	r0, r3
 836              	.LVL41:
1147:Generated_Source\PSoC4/SPIM_EE.c **** 
1148:Generated_Source\PSoC4/SPIM_EE.c ****     #endif /* (SPIM_EE_TX_SOFTWARE_BUF_ENABLED || SPIM_EE_RX_SOFTWARE_BUF_ENABLED) */
1149:Generated_Source\PSoC4/SPIM_EE.c **** 
1150:Generated_Source\PSoC4/SPIM_EE.c ****     return(tmpStatus);
1151:Generated_Source\PSoC4/SPIM_EE.c **** }
 837              		.loc 1 1151 0
 838              		@ sp needed
 839 000e 7047     		bx	lr
 840              	.L71:
 841              		.align	2
 842              	.L70:
 843 0010 66000F40 		.word	1074724966
 844 0014 62000F40 		.word	1074724962
 845              		.cfi_endproc
 846              	.LFE24:
 847              		.size	SPIM_EE_ReadStatus, .-SPIM_EE_ReadStatus
 848              		.comm	SPIM_EE_swStatusRx,1,1
 849              		.comm	SPIM_EE_swStatusTx,1,1
 850              		.global	SPIM_EE_initVar
 851              		.bss
 852              		.set	.LANCHOR0,. + 0
 853              		.type	SPIM_EE_initVar, %object
 854              		.size	SPIM_EE_initVar, 1
 855              	SPIM_EE_initVar:
 856 0000 00       		.space	1
 857              		.text
 858              	.Letext0:
 859              		.file 2 "Generated_Source\\PSoC4\\cytypes.h"
 860              		.file 3 "Generated_Source\\PSoC4\\CyLib.h"
 861              		.file 4 "Generated_Source\\PSoC4\\SPIM_EE_IntClock.h"