ARM GAS  C:\Users\rolf\AppData\Local\Temp\ccI7yHa2.s 			page 1


   1              		.syntax unified
   2              		.cpu cortex-m0
   3              		.fpu softvfp
   4              		.eabi_attribute 20, 1
   5              		.eabi_attribute 21, 1
   6              		.eabi_attribute 23, 3
   7              		.eabi_attribute 24, 1
   8              		.eabi_attribute 25, 1
   9              		.eabi_attribute 26, 1
  10              		.eabi_attribute 30, 1
  11              		.eabi_attribute 34, 0
  12              		.eabi_attribute 18, 4
  13              		.thumb
  14              		.syntax unified
  15              		.file	"SPIS_HOST_PM.c"
  16              		.text
  17              	.Ltext0:
  18              		.cfi_sections	.debug_frame
  19              		.section	.text.SPIS_HOST_SaveConfig,"ax",%progbits
  20              		.align	2
  21              		.global	SPIS_HOST_SaveConfig
  22              		.code	16
  23              		.thumb_func
  24              		.type	SPIS_HOST_SaveConfig, %function
  25              	SPIS_HOST_SaveConfig:
  26              	.LFB1:
  27              		.file 1 "Generated_Source\\PSoC4\\SPIS_HOST_PM.c"
   1:Generated_Source\PSoC4/SPIS_HOST_PM.c **** /*******************************************************************************
   2:Generated_Source\PSoC4/SPIS_HOST_PM.c **** * File Name: SPIS_HOST_PM.c
   3:Generated_Source\PSoC4/SPIS_HOST_PM.c **** * Version 2.70
   4:Generated_Source\PSoC4/SPIS_HOST_PM.c **** *
   5:Generated_Source\PSoC4/SPIS_HOST_PM.c **** * Description:
   6:Generated_Source\PSoC4/SPIS_HOST_PM.c **** *  This file contains the setup, control and status commands to support
   7:Generated_Source\PSoC4/SPIS_HOST_PM.c **** *  component operations in low power mode.
   8:Generated_Source\PSoC4/SPIS_HOST_PM.c **** *
   9:Generated_Source\PSoC4/SPIS_HOST_PM.c **** * Note:
  10:Generated_Source\PSoC4/SPIS_HOST_PM.c **** *
  11:Generated_Source\PSoC4/SPIS_HOST_PM.c **** ********************************************************************************
  12:Generated_Source\PSoC4/SPIS_HOST_PM.c **** * Copyright 2008-2015, Cypress Semiconductor Corporation.  All rights reserved.
  13:Generated_Source\PSoC4/SPIS_HOST_PM.c **** * You may use this file only in accordance with the license, terms, conditions,
  14:Generated_Source\PSoC4/SPIS_HOST_PM.c **** * disclaimers, and limitations in the end user license agreement accompanying
  15:Generated_Source\PSoC4/SPIS_HOST_PM.c **** * the software package with which this file was provided.
  16:Generated_Source\PSoC4/SPIS_HOST_PM.c **** *******************************************************************************/
  17:Generated_Source\PSoC4/SPIS_HOST_PM.c **** 
  18:Generated_Source\PSoC4/SPIS_HOST_PM.c **** #include "SPIS_HOST_PVT.h"
  19:Generated_Source\PSoC4/SPIS_HOST_PM.c **** 
  20:Generated_Source\PSoC4/SPIS_HOST_PM.c **** static SPIS_HOST_BACKUP_STRUCT SPIS_HOST_backup = 
  21:Generated_Source\PSoC4/SPIS_HOST_PM.c **** {
  22:Generated_Source\PSoC4/SPIS_HOST_PM.c ****     SPIS_HOST_DISABLED,
  23:Generated_Source\PSoC4/SPIS_HOST_PM.c ****     SPIS_HOST_BITCTR_INIT,
  24:Generated_Source\PSoC4/SPIS_HOST_PM.c **** };
  25:Generated_Source\PSoC4/SPIS_HOST_PM.c **** 
  26:Generated_Source\PSoC4/SPIS_HOST_PM.c **** 
  27:Generated_Source\PSoC4/SPIS_HOST_PM.c **** /*******************************************************************************
  28:Generated_Source\PSoC4/SPIS_HOST_PM.c **** * Function Name: SPIS_HOST_SaveConfig
  29:Generated_Source\PSoC4/SPIS_HOST_PM.c **** ********************************************************************************
  30:Generated_Source\PSoC4/SPIS_HOST_PM.c **** *
ARM GAS  C:\Users\rolf\AppData\Local\Temp\ccI7yHa2.s 			page 2


  31:Generated_Source\PSoC4/SPIS_HOST_PM.c **** * Summary:
  32:Generated_Source\PSoC4/SPIS_HOST_PM.c **** *  Empty function. Included for consistency with other components.
  33:Generated_Source\PSoC4/SPIS_HOST_PM.c **** *
  34:Generated_Source\PSoC4/SPIS_HOST_PM.c **** * Parameters:
  35:Generated_Source\PSoC4/SPIS_HOST_PM.c **** *  None.
  36:Generated_Source\PSoC4/SPIS_HOST_PM.c **** *
  37:Generated_Source\PSoC4/SPIS_HOST_PM.c **** * Return:
  38:Generated_Source\PSoC4/SPIS_HOST_PM.c **** *  None.
  39:Generated_Source\PSoC4/SPIS_HOST_PM.c **** *
  40:Generated_Source\PSoC4/SPIS_HOST_PM.c **** *******************************************************************************/
  41:Generated_Source\PSoC4/SPIS_HOST_PM.c **** void SPIS_HOST_SaveConfig(void) 
  42:Generated_Source\PSoC4/SPIS_HOST_PM.c **** {
  28              		.loc 1 42 0
  29              		.cfi_startproc
  30              		@ args = 0, pretend = 0, frame = 0
  31              		@ frame_needed = 0, uses_anonymous_args = 0
  32              		@ link register save eliminated.
  43:Generated_Source\PSoC4/SPIS_HOST_PM.c **** 
  44:Generated_Source\PSoC4/SPIS_HOST_PM.c **** }
  33              		.loc 1 44 0
  34              		@ sp needed
  35 0000 7047     		bx	lr
  36              		.cfi_endproc
  37              	.LFE1:
  38              		.size	SPIS_HOST_SaveConfig, .-SPIS_HOST_SaveConfig
  39 0002 C046     		.section	.text.SPIS_HOST_RestoreConfig,"ax",%progbits
  40              		.align	2
  41              		.global	SPIS_HOST_RestoreConfig
  42              		.code	16
  43              		.thumb_func
  44              		.type	SPIS_HOST_RestoreConfig, %function
  45              	SPIS_HOST_RestoreConfig:
  46              	.LFB2:
  45:Generated_Source\PSoC4/SPIS_HOST_PM.c **** 
  46:Generated_Source\PSoC4/SPIS_HOST_PM.c **** 
  47:Generated_Source\PSoC4/SPIS_HOST_PM.c **** /*******************************************************************************
  48:Generated_Source\PSoC4/SPIS_HOST_PM.c **** * Function Name: SPIS_HOST_RestoreConfig
  49:Generated_Source\PSoC4/SPIS_HOST_PM.c **** ********************************************************************************
  50:Generated_Source\PSoC4/SPIS_HOST_PM.c **** *
  51:Generated_Source\PSoC4/SPIS_HOST_PM.c **** * Summary:
  52:Generated_Source\PSoC4/SPIS_HOST_PM.c **** *  Empty function. Included for consistency with other components.
  53:Generated_Source\PSoC4/SPIS_HOST_PM.c **** *
  54:Generated_Source\PSoC4/SPIS_HOST_PM.c **** * Parameters:
  55:Generated_Source\PSoC4/SPIS_HOST_PM.c **** *  None.
  56:Generated_Source\PSoC4/SPIS_HOST_PM.c **** *
  57:Generated_Source\PSoC4/SPIS_HOST_PM.c **** * Return:
  58:Generated_Source\PSoC4/SPIS_HOST_PM.c **** *  None.
  59:Generated_Source\PSoC4/SPIS_HOST_PM.c **** *
  60:Generated_Source\PSoC4/SPIS_HOST_PM.c **** *******************************************************************************/
  61:Generated_Source\PSoC4/SPIS_HOST_PM.c **** void SPIS_HOST_RestoreConfig(void) 
  62:Generated_Source\PSoC4/SPIS_HOST_PM.c **** {
  47              		.loc 1 62 0
  48              		.cfi_startproc
  49              		@ args = 0, pretend = 0, frame = 0
  50              		@ frame_needed = 0, uses_anonymous_args = 0
  51              		@ link register save eliminated.
  63:Generated_Source\PSoC4/SPIS_HOST_PM.c **** 
ARM GAS  C:\Users\rolf\AppData\Local\Temp\ccI7yHa2.s 			page 3


  64:Generated_Source\PSoC4/SPIS_HOST_PM.c **** }
  52              		.loc 1 64 0
  53              		@ sp needed
  54 0000 7047     		bx	lr
  55              		.cfi_endproc
  56              	.LFE2:
  57              		.size	SPIS_HOST_RestoreConfig, .-SPIS_HOST_RestoreConfig
  58 0002 C046     		.section	.text.SPIS_HOST_Sleep,"ax",%progbits
  59              		.align	2
  60              		.global	SPIS_HOST_Sleep
  61              		.code	16
  62              		.thumb_func
  63              		.type	SPIS_HOST_Sleep, %function
  64              	SPIS_HOST_Sleep:
  65              	.LFB3:
  65:Generated_Source\PSoC4/SPIS_HOST_PM.c **** 
  66:Generated_Source\PSoC4/SPIS_HOST_PM.c **** 
  67:Generated_Source\PSoC4/SPIS_HOST_PM.c **** /*******************************************************************************
  68:Generated_Source\PSoC4/SPIS_HOST_PM.c **** * Function Name: SPIS_HOST_Sleep
  69:Generated_Source\PSoC4/SPIS_HOST_PM.c **** ********************************************************************************
  70:Generated_Source\PSoC4/SPIS_HOST_PM.c **** *
  71:Generated_Source\PSoC4/SPIS_HOST_PM.c **** * Summary:
  72:Generated_Source\PSoC4/SPIS_HOST_PM.c **** *  Prepare SPI Slave Component goes to sleep.
  73:Generated_Source\PSoC4/SPIS_HOST_PM.c **** *
  74:Generated_Source\PSoC4/SPIS_HOST_PM.c **** * Parameters:
  75:Generated_Source\PSoC4/SPIS_HOST_PM.c **** *  None.
  76:Generated_Source\PSoC4/SPIS_HOST_PM.c **** *
  77:Generated_Source\PSoC4/SPIS_HOST_PM.c **** * Return:
  78:Generated_Source\PSoC4/SPIS_HOST_PM.c **** *  None.
  79:Generated_Source\PSoC4/SPIS_HOST_PM.c **** *
  80:Generated_Source\PSoC4/SPIS_HOST_PM.c **** * Global Variables:
  81:Generated_Source\PSoC4/SPIS_HOST_PM.c **** *  SPIS_HOST_backup - modified when non-retention registers are saved.
  82:Generated_Source\PSoC4/SPIS_HOST_PM.c **** *
  83:Generated_Source\PSoC4/SPIS_HOST_PM.c **** * Reentrant:
  84:Generated_Source\PSoC4/SPIS_HOST_PM.c **** *  No.
  85:Generated_Source\PSoC4/SPIS_HOST_PM.c **** *
  86:Generated_Source\PSoC4/SPIS_HOST_PM.c **** *******************************************************************************/
  87:Generated_Source\PSoC4/SPIS_HOST_PM.c **** void SPIS_HOST_Sleep(void) 
  88:Generated_Source\PSoC4/SPIS_HOST_PM.c **** {
  66              		.loc 1 88 0
  67              		.cfi_startproc
  68              		@ args = 0, pretend = 0, frame = 0
  69              		@ frame_needed = 0, uses_anonymous_args = 0
  70 0000 10B5     		push	{r4, lr}
  71              		.cfi_def_cfa_offset 8
  72              		.cfi_offset 4, -8
  73              		.cfi_offset 14, -4
  89:Generated_Source\PSoC4/SPIS_HOST_PM.c ****     /* Save components enable state */
  90:Generated_Source\PSoC4/SPIS_HOST_PM.c ****     if ((SPIS_HOST_TX_STATUS_ACTL_REG & SPIS_HOST_INT_ENABLE) != 0u)
  74              		.loc 1 90 0
  75 0002 074B     		ldr	r3, .L6
  76 0004 1B78     		ldrb	r3, [r3]
  77 0006 DB06     		lsls	r3, r3, #27
  78 0008 03D5     		bpl	.L4
  91:Generated_Source\PSoC4/SPIS_HOST_PM.c ****     {
  92:Generated_Source\PSoC4/SPIS_HOST_PM.c ****         SPIS_HOST_backup.enableState = 1u;
  79              		.loc 1 92 0
ARM GAS  C:\Users\rolf\AppData\Local\Temp\ccI7yHa2.s 			page 4


  80 000a 0122     		movs	r2, #1
  81 000c 054B     		ldr	r3, .L6+4
  82 000e 1A70     		strb	r2, [r3]
  83 0010 02E0     		b	.L5
  84              	.L4:
  93:Generated_Source\PSoC4/SPIS_HOST_PM.c ****     }
  94:Generated_Source\PSoC4/SPIS_HOST_PM.c ****     else /* Components block is disabled */
  95:Generated_Source\PSoC4/SPIS_HOST_PM.c ****     {
  96:Generated_Source\PSoC4/SPIS_HOST_PM.c ****         SPIS_HOST_backup.enableState = 0u;
  85              		.loc 1 96 0
  86 0012 0022     		movs	r2, #0
  87 0014 034B     		ldr	r3, .L6+4
  88 0016 1A70     		strb	r2, [r3]
  89              	.L5:
  97:Generated_Source\PSoC4/SPIS_HOST_PM.c ****     }
  98:Generated_Source\PSoC4/SPIS_HOST_PM.c **** 
  99:Generated_Source\PSoC4/SPIS_HOST_PM.c ****     SPIS_HOST_Stop();
  90              		.loc 1 99 0
  91 0018 FFF7FEFF 		bl	SPIS_HOST_Stop
  92              	.LVL0:
 100:Generated_Source\PSoC4/SPIS_HOST_PM.c **** 
 101:Generated_Source\PSoC4/SPIS_HOST_PM.c **** }
  93              		.loc 1 101 0
  94              		@ sp needed
  95 001c 10BD     		pop	{r4, pc}
  96              	.L7:
  97 001e C046     		.align	2
  98              	.L6:
  99 0020 91000F40 		.word	1074725009
 100 0024 00000000 		.word	.LANCHOR0
 101              		.cfi_endproc
 102              	.LFE3:
 103              		.size	SPIS_HOST_Sleep, .-SPIS_HOST_Sleep
 104              		.section	.text.SPIS_HOST_Wakeup,"ax",%progbits
 105              		.align	2
 106              		.global	SPIS_HOST_Wakeup
 107              		.code	16
 108              		.thumb_func
 109              		.type	SPIS_HOST_Wakeup, %function
 110              	SPIS_HOST_Wakeup:
 111              	.LFB4:
 102:Generated_Source\PSoC4/SPIS_HOST_PM.c **** 
 103:Generated_Source\PSoC4/SPIS_HOST_PM.c **** 
 104:Generated_Source\PSoC4/SPIS_HOST_PM.c **** /*******************************************************************************
 105:Generated_Source\PSoC4/SPIS_HOST_PM.c **** * Function Name: SPIS_HOST_Wakeup
 106:Generated_Source\PSoC4/SPIS_HOST_PM.c **** ********************************************************************************
 107:Generated_Source\PSoC4/SPIS_HOST_PM.c **** *
 108:Generated_Source\PSoC4/SPIS_HOST_PM.c **** * Summary:
 109:Generated_Source\PSoC4/SPIS_HOST_PM.c **** *  Prepare SPIM Component to wake up.
 110:Generated_Source\PSoC4/SPIS_HOST_PM.c **** *
 111:Generated_Source\PSoC4/SPIS_HOST_PM.c **** * Parameters:
 112:Generated_Source\PSoC4/SPIS_HOST_PM.c **** *  None.
 113:Generated_Source\PSoC4/SPIS_HOST_PM.c **** *
 114:Generated_Source\PSoC4/SPIS_HOST_PM.c **** * Return:
 115:Generated_Source\PSoC4/SPIS_HOST_PM.c **** *  None.
 116:Generated_Source\PSoC4/SPIS_HOST_PM.c **** *
 117:Generated_Source\PSoC4/SPIS_HOST_PM.c **** * Global Variables:
ARM GAS  C:\Users\rolf\AppData\Local\Temp\ccI7yHa2.s 			page 5


 118:Generated_Source\PSoC4/SPIS_HOST_PM.c **** *  SPIS_HOST_backup - used when non-retention registers are restored.
 119:Generated_Source\PSoC4/SPIS_HOST_PM.c **** *  SPIS_HOST_txBufferWrite - modified every function call - resets to
 120:Generated_Source\PSoC4/SPIS_HOST_PM.c **** *  zero.
 121:Generated_Source\PSoC4/SPIS_HOST_PM.c **** *  SPIS_HOST_txBufferRead - modified every function call - resets to
 122:Generated_Source\PSoC4/SPIS_HOST_PM.c **** *  zero.
 123:Generated_Source\PSoC4/SPIS_HOST_PM.c **** *  SPIS_HOST_rxBufferWrite - modified every function call - resets to
 124:Generated_Source\PSoC4/SPIS_HOST_PM.c **** *  zero.
 125:Generated_Source\PSoC4/SPIS_HOST_PM.c **** *  SPIS_HOST_rxBufferRead - modified every function call - resets to
 126:Generated_Source\PSoC4/SPIS_HOST_PM.c **** *  zero.
 127:Generated_Source\PSoC4/SPIS_HOST_PM.c **** *
 128:Generated_Source\PSoC4/SPIS_HOST_PM.c **** * Reentrant:
 129:Generated_Source\PSoC4/SPIS_HOST_PM.c **** *  No.
 130:Generated_Source\PSoC4/SPIS_HOST_PM.c **** *
 131:Generated_Source\PSoC4/SPIS_HOST_PM.c **** *******************************************************************************/
 132:Generated_Source\PSoC4/SPIS_HOST_PM.c **** void SPIS_HOST_Wakeup(void) 
 133:Generated_Source\PSoC4/SPIS_HOST_PM.c **** {
 112              		.loc 1 133 0
 113              		.cfi_startproc
 114              		@ args = 0, pretend = 0, frame = 0
 115              		@ frame_needed = 0, uses_anonymous_args = 0
 116 0000 10B5     		push	{r4, lr}
 117              		.cfi_def_cfa_offset 8
 118              		.cfi_offset 4, -8
 119              		.cfi_offset 14, -4
 134:Generated_Source\PSoC4/SPIS_HOST_PM.c ****     #if (SPIS_HOST_TX_SOFTWARE_BUF_ENABLED)
 135:Generated_Source\PSoC4/SPIS_HOST_PM.c ****         SPIS_HOST_txBufferFull = 0u;
 136:Generated_Source\PSoC4/SPIS_HOST_PM.c ****         SPIS_HOST_txBufferRead = 0u;
 137:Generated_Source\PSoC4/SPIS_HOST_PM.c ****         SPIS_HOST_txBufferWrite = 0u;
 138:Generated_Source\PSoC4/SPIS_HOST_PM.c ****     #endif /* SPIS_HOST_TX_SOFTWARE_BUF_ENABLED */
 139:Generated_Source\PSoC4/SPIS_HOST_PM.c **** 
 140:Generated_Source\PSoC4/SPIS_HOST_PM.c ****     #if (SPIS_HOST_RX_SOFTWARE_BUF_ENABLED)
 141:Generated_Source\PSoC4/SPIS_HOST_PM.c ****         SPIS_HOST_rxBufferFull = 0u;
 142:Generated_Source\PSoC4/SPIS_HOST_PM.c ****         SPIS_HOST_rxBufferRead = 0u;
 143:Generated_Source\PSoC4/SPIS_HOST_PM.c ****         SPIS_HOST_rxBufferWrite = 0u;
 144:Generated_Source\PSoC4/SPIS_HOST_PM.c ****     #endif /* SPIS_HOST_RX_SOFTWARE_BUF_ENABLED */
 145:Generated_Source\PSoC4/SPIS_HOST_PM.c **** 
 146:Generated_Source\PSoC4/SPIS_HOST_PM.c ****     SPIS_HOST_ClearFIFO();
 120              		.loc 1 146 0
 121 0002 FFF7FEFF 		bl	SPIS_HOST_ClearFIFO
 122              	.LVL1:
 147:Generated_Source\PSoC4/SPIS_HOST_PM.c **** 
 148:Generated_Source\PSoC4/SPIS_HOST_PM.c ****     /* Restore components block enable state */
 149:Generated_Source\PSoC4/SPIS_HOST_PM.c ****     if (SPIS_HOST_backup.enableState != 0u)
 123              		.loc 1 149 0
 124 0006 034B     		ldr	r3, .L10
 125 0008 1B78     		ldrb	r3, [r3]
 126 000a 002B     		cmp	r3, #0
 127 000c 01D0     		beq	.L8
 150:Generated_Source\PSoC4/SPIS_HOST_PM.c ****     {
 151:Generated_Source\PSoC4/SPIS_HOST_PM.c ****          /* Components block was enabled */
 152:Generated_Source\PSoC4/SPIS_HOST_PM.c ****          SPIS_HOST_Enable();
 128              		.loc 1 152 0
 129 000e FFF7FEFF 		bl	SPIS_HOST_Enable
 130              	.LVL2:
 131              	.L8:
 153:Generated_Source\PSoC4/SPIS_HOST_PM.c ****     } /* Do nothing if components block was disabled */
 154:Generated_Source\PSoC4/SPIS_HOST_PM.c **** }
ARM GAS  C:\Users\rolf\AppData\Local\Temp\ccI7yHa2.s 			page 6


 132              		.loc 1 154 0
 133              		@ sp needed
 134 0012 10BD     		pop	{r4, pc}
 135              	.L11:
 136              		.align	2
 137              	.L10:
 138 0014 00000000 		.word	.LANCHOR0
 139              		.cfi_endproc
 140              	.LFE4:
 141              		.size	SPIS_HOST_Wakeup, .-SPIS_HOST_Wakeup
 142              		.data
 143              		.align	2
 144              		.set	.LANCHOR0,. + 0
 145              		.type	SPIS_HOST_backup, %object
 146              		.size	SPIS_HOST_backup, 2
 147              	SPIS_HOST_backup:
 148 0000 00       		.byte	0
 149 0001 07       		.byte	7
 150              		.text
 151              	.Letext0:
 152              		.file 2 "Generated_Source\\PSoC4\\cytypes.h"
 153              		.file 3 "Generated_Source\\PSoC4\\SPIS_HOST.h"